///////////////////////////////////////////////////////////////////////////////
//
// IAR C/C++ Compiler V9.30.3.3983 for 8051               30/Apr/2017  20:52:43
// Copyright 2004-2016 IAR Systems AB.
// Standalone license - IAR Embedded Workbench for 8051
//
//    Core               =  plain
//    Code model         =  banked
//    Data model         =  large
//    Calling convention =  xdata reentrant
//    Constant location  =  data_rom
//    Dptr setup         =  1,16
//                          
//    Source file        =  
//        E:\DAT\bau-quang\CodeZigbee -
//        CC2530\Projects\zstack\Samples\SimpleApp\Source\SimpleSensor.c
//    Command line       =  
//        -f "E:\DAT\bau-quang\CodeZigbee -
//        CC2530\Projects\zstack\Samples\SimpleApp\CC2530DB\..\..\..\Tools\CC2530DB\f8wEndev.cfg"
//        (-DCPU32MHZ -DROOT=__near_func -DMAC_CFG_TX_DATA_MAX=3
//        -DMAC_CFG_TX_MAX=6 -DMAC_CFG_RX_MAX=3) -f
//        "E:\DAT\bau-quang\CodeZigbee -
//        CC2530\Projects\zstack\Samples\SimpleApp\CC2530DB\..\..\..\Tools\CC2530DB\f8wConfig.cfg"
//        (-DZIGBEEPRO -DSECURE=0 -DZG_SECURE_DYNAMIC=0 -DREFLECTOR
//        -DDEFAULT_CHANLIST=0x00002000 -DZDAPP_CONFIG_PAN_ID=0x1111
//        -DNWK_START_DELAY=100 -DEXTENDED_JOINING_RANDOM_MASK=0x007F
//        -DBEACON_REQUEST_DELAY=100 -DBEACON_REQ_DELAY_MASK=0x00FF
//        -DLINK_STATUS_JITTER_MASK=0x007F -DROUTE_EXPIRY_TIME=30
//        -DAPSC_ACK_WAIT_DURATION_POLLED=3000 -DNWK_INDIRECT_MSG_TIMEOUT=7
//        -DMAX_RREQ_ENTRIES=8 -DAPSC_MAX_FRAME_RETRIES=3
//        -DNWK_MAX_DATA_RETRIES=2 -DMAX_POLL_FAILURE_RETRIES=2 -DMAX_BCAST=9
//        -DAPS_MAX_GROUPS=16 -DMAX_RTG_ENTRIES=40 -DNWK_MAX_BINDING_ENTRIES=4
//        -DMAX_BINDING_CLUSTER_IDS=4 "-DDEFAULT_KEY={0x01, 0x03, 0x05, 0x07,
//        0x09, 0x0B, 0x0D, 0x0F, 0x00, 0x02, 0x04, 0x06, 0x08, 0x0A, 0x0C,
//        0x0D}" -DMAC_MAX_FRAME_SIZE=116 -DZDNWKMGR_MIN_TRANSMISSIONS=20
//        "-DCONST=const __code" -DGENERIC=__generic -DRFD_RCVC_ALWAYS_ON=FALSE
//        -DPOLL_RATE=1000 -DQUEUED_POLL_RATE=100 -DRESPONSE_POLL_RATE=100)
//        -DREJOIN_POLL_RATE=440 "E:\DAT\bau-quang\CodeZigbee -
//        CC2530\Projects\zstack\Samples\SimpleApp\Source\SimpleSensor.c" -D
//        NWK_AUTO_POLL -D HOLD_AUTO_START -D REFLECTOR -D POWER_SAVING -D
//        NV_INIT -D NV_RESTORE -D xZTOOL_P1 -D xMT_TASK -D xMT_SYS_FUNC -D
//        xMT_SAPI_FUNC -D xMT_SAPI_CB_FUNC -D HAL_UART=TRUE -lC
//        "E:\DAT\bau-quang\CodeZigbee -
//        CC2530\Projects\zstack\Samples\SimpleApp\CC2530DB\SimpleSensorEB\List"
//        -lA "E:\DAT\bau-quang\CodeZigbee -
//        CC2530\Projects\zstack\Samples\SimpleApp\CC2530DB\SimpleSensorEB\List"
//        --diag_suppress Pe001,Pa010 -o "E:\DAT\bau-quang\CodeZigbee -
//        CC2530\Projects\zstack\Samples\SimpleApp\CC2530DB\SimpleSensorEB\Obj"
//        -e --no_code_motion --debug --core=plain --dptr=16,1
//        --data_model=large --code_model=banked
//        --calling_convention=xdata_reentrant --place_constants=data_rom
//        --nr_virtual_regs 8 -I "E:\DAT\bau-quang\CodeZigbee -
//        CC2530\Projects\zstack\Samples\SimpleApp\CC2530DB\" -I
//        "E:\DAT\bau-quang\CodeZigbee -
//        CC2530\Projects\zstack\Samples\SimpleApp\CC2530DB\..\Source\" -I
//        "E:\DAT\bau-quang\CodeZigbee -
//        CC2530\Projects\zstack\Samples\SimpleApp\CC2530DB\..\..\..\ZMain\TI2530DB\"
//        -I "E:\DAT\bau-quang\CodeZigbee -
//        CC2530\Projects\zstack\Samples\SimpleApp\CC2530DB\..\..\..\..\..\Components\hal\include\"
//        -I "E:\DAT\bau-quang\CodeZigbee -
//        CC2530\Projects\zstack\Samples\SimpleApp\CC2530DB\..\..\..\..\..\Components\hal\target\CC2530EB\"
//        -I "E:\DAT\bau-quang\CodeZigbee -
//        CC2530\Projects\zstack\Samples\SimpleApp\CC2530DB\..\..\..\..\..\Components\mac\include\"
//        -I "E:\DAT\bau-quang\CodeZigbee -
//        CC2530\Projects\zstack\Samples\SimpleApp\CC2530DB\..\..\..\..\..\Components\mac\high_level\"
//        -I "E:\DAT\bau-quang\CodeZigbee -
//        CC2530\Projects\zstack\Samples\SimpleApp\CC2530DB\..\..\..\..\..\Components\mac\low_level\srf04\"
//        -I "E:\DAT\bau-quang\CodeZigbee -
//        CC2530\Projects\zstack\Samples\SimpleApp\CC2530DB\..\..\..\..\..\Components\mac\low_level\srf04\single_chip\"
//        -I "E:\DAT\bau-quang\CodeZigbee -
//        CC2530\Projects\zstack\Samples\SimpleApp\CC2530DB\..\..\..\..\..\Components\mt\"
//        -I "E:\DAT\bau-quang\CodeZigbee -
//        CC2530\Projects\zstack\Samples\SimpleApp\CC2530DB\..\..\..\..\..\Components\osal\include\"
//        -I "E:\DAT\bau-quang\CodeZigbee -
//        CC2530\Projects\zstack\Samples\SimpleApp\CC2530DB\..\..\..\..\..\Components\services\saddr\"
//        -I "E:\DAT\bau-quang\CodeZigbee -
//        CC2530\Projects\zstack\Samples\SimpleApp\CC2530DB\..\..\..\..\..\Components\services\sdata\"
//        -I "E:\DAT\bau-quang\CodeZigbee -
//        CC2530\Projects\zstack\Samples\SimpleApp\CC2530DB\..\..\..\..\..\Components\stack\af\"
//        -I "E:\DAT\bau-quang\CodeZigbee -
//        CC2530\Projects\zstack\Samples\SimpleApp\CC2530DB\..\..\..\..\..\Components\stack\nwk\"
//        -I "E:\DAT\bau-quang\CodeZigbee -
//        CC2530\Projects\zstack\Samples\SimpleApp\CC2530DB\..\..\..\..\..\Components\stack\sapi\"
//        -I "E:\DAT\bau-quang\CodeZigbee -
//        CC2530\Projects\zstack\Samples\SimpleApp\CC2530DB\..\..\..\..\..\Components\stack\sec\"
//        -I "E:\DAT\bau-quang\CodeZigbee -
//        CC2530\Projects\zstack\Samples\SimpleApp\CC2530DB\..\..\..\..\..\Components\stack\sys\"
//        -I "E:\DAT\bau-quang\CodeZigbee -
//        CC2530\Projects\zstack\Samples\SimpleApp\CC2530DB\..\..\..\..\..\Components\stack\zdo\"
//        -I "E:\DAT\bau-quang\CodeZigbee -
//        CC2530\Projects\zstack\Samples\SimpleApp\CC2530DB\..\..\..\..\..\Components\zmac\"
//        -I "E:\DAT\bau-quang\CodeZigbee -
//        CC2530\Projects\zstack\Samples\SimpleApp\CC2530DB\..\..\..\..\..\Components\zmac\f8w\"
//        -Ohz --require_prototypes
//    List file          =  
//        E:\DAT\bau-quang\CodeZigbee -
//        CC2530\Projects\zstack\Samples\SimpleApp\CC2530DB\SimpleSensorEB\List\SimpleSensor.s51
//
///////////////////////////////////////////////////////////////////////////////

        NAME SimpleSensor

        RTMODEL "__SystemLibrary", "CLib"
        RTMODEL "__calling_convention", "xdata_reentrant"
        RTMODEL "__code_model", "banked"
        RTMODEL "__core", "plain"
        RTMODEL "__data_model", "large"
        RTMODEL "__dptr_size", "16"
        RTMODEL "__extended_stack", "disabled"
        RTMODEL "__location_for_constants", "data"
        RTMODEL "__number_of_dptrs", "1"
        RTMODEL "__rt_version", "1"

        RSEG DOVERLAY:DATA:NOROOT(0)
        RSEG IOVERLAY:IDATA:NOROOT(0)
        RSEG ISTACK:IDATA:NOROOT(0)
        RSEG PSTACK:XDATA:NOROOT(0)
        RSEG XSTACK:XDATA:NOROOT(0)

        EXTERN ?V0
        EXTERN ?V1
        EXTERN ?V2
        EXTERN ?V3
        EXTERN ?V4
        EXTERN ?V5
        EXTERN ?V6
        EXTERN ?V7
        EXTERN ?ALLOC_XSTACK8
        EXTERN ?BANKED_ENTER_XDATA
        EXTERN ?BANKED_LEAVE_XDATA
        EXTERN ?BDISPATCH
        EXTERN ?BRET
        EXTERN ?DEALLOC_XSTACK8
        EXTERN ?FLT_MUL
        EXTERN ?FLT_TO_L
        EXTERN ?L_MOV_X
        EXTERN ?PUSH_XSTACK_I_ONE
        EXTERN ?PUSH_XSTACK_I_TWO
        EXTERN ?UL_TO_FLT
        EXTERN ?US_DIV_MOD
        EXTERN ?US_SHR
        EXTERN ?XSP
        EXTERN ?XSTACK_DISP0_8
        EXTERN ?XSTACK_DISP101_8
        EXTERN ?XSTACK_DISP102_8
        EXTERN __INIT_XDATA_I
        EXTERN __INIT_XDATA_Z

        FUNCTION `??Uart0_Cb::?relay`,0203H
        PUBLIC `??zb_AllowBindConfirm::?relay`
        FUNCTION `??zb_AllowBindConfirm::?relay`,0203H
        PUBLIC `??zb_BindConfirm::?relay`
        FUNCTION `??zb_BindConfirm::?relay`,0203H
        PUBLIC `??zb_FindDeviceConfirm::?relay`
        FUNCTION `??zb_FindDeviceConfirm::?relay`,0203H
        PUBLIC `??zb_HandleKeys::?relay`
        FUNCTION `??zb_HandleKeys::?relay`,0203H
        PUBLIC `??zb_HandleOsalEvent::?relay`
        FUNCTION `??zb_HandleOsalEvent::?relay`,0203H
        PUBLIC `??zb_ReceiveDataIndication::?relay`
        FUNCTION `??zb_ReceiveDataIndication::?relay`,0203H
        PUBLIC `??zb_SendDataConfirm::?relay`
        FUNCTION `??zb_SendDataConfirm::?relay`,0203H
        PUBLIC `??zb_StartConfirm::?relay`
        FUNCTION `??zb_StartConfirm::?relay`,0203H
        PUBWEAK ADCCON3
        PUBWEAK ADCH
        PUBWEAK ADCL
        FUNCTION Uart0_Cb,0a1603H
        ARGFRAME XSTACK, 0, STACK
        LOCFRAME XSTACK, 14, STACK
        PUBWEAK _A_TCON
        PUBWEAK __Constant_42160000
        PUBLIC zb_AllowBindConfirm
        FUNCTION zb_AllowBindConfirm,0203H
        ARGFRAME XSTACK, 0, STACK
        PUBLIC zb_BindConfirm
        FUNCTION zb_BindConfirm,021203H
        ARGFRAME XSTACK, 0, STACK
        LOCFRAME XSTACK, 9, STACK
        PUBLIC zb_FindDeviceConfirm
        FUNCTION zb_FindDeviceConfirm,0203H
        ARGFRAME XSTACK, 0, STACK
        PUBLIC zb_HandleKeys
        FUNCTION zb_HandleKeys,0203H
        ARGFRAME XSTACK, 0, STACK
        PUBLIC zb_HandleOsalEvent
        FUNCTION zb_HandleOsalEvent,0a1203H
        ARGFRAME XSTACK, 0, STACK
        LOCFRAME XSTACK, 52, STACK
        PUBLIC zb_InCmdList
        PUBLIC zb_OutCmdList
        PUBLIC zb_ReceiveDataIndication
        FUNCTION zb_ReceiveDataIndication,0203H
        ARGFRAME XSTACK, 4, STACK
        PUBLIC zb_SendDataConfirm
        FUNCTION zb_SendDataConfirm,021203H
        ARGFRAME XSTACK, 0, STACK
        LOCFRAME XSTACK, 9, STACK
        PUBLIC zb_SimpleDesc
        PUBLIC zb_StartConfirm
        FUNCTION zb_StartConfirm,021203H
        ARGFRAME XSTACK, 0, STACK
        LOCFRAME XSTACK, 9, STACK
        
          CFI Names cfiNames0
          CFI StackFrame CFA_SP SP IDATA
          CFI StackFrame CFA_PSP16 PSP16 XDATA
          CFI StackFrame CFA_XSP16 XSP16 XDATA
          CFI StaticOverlayFrame CFA_IOVERLAY IOVERLAY
          CFI StaticOverlayFrame CFA_DOVERLAY DOVERLAY
          CFI Resource `PSW.CY`:1, `B.BR0`:1, `B.BR1`:1, `B.BR2`:1, `B.BR3`:1
          CFI Resource `B.BR4`:1, `B.BR5`:1, `B.BR6`:1, `B.BR7`:1, `VB.BR8`:1
          CFI Resource `VB.BR9`:1, `VB.BR10`:1, `VB.BR11`:1, `VB.BR12`:1
          CFI Resource `VB.BR13`:1, `VB.BR14`:1, `VB.BR15`:1, VB:8, B:8, A:8
          CFI Resource PSW:8, DPL0:8, DPH0:8, R0:8, R1:8, R2:8, R3:8, R4:8, R5:8
          CFI Resource R6:8, R7:8, V0:8, V1:8, V2:8, V3:8, V4:8, V5:8, V6:8, V7:8
          CFI Resource SP:8, PSPH:8, PSPL:8, PSP16:16, XSPH:8, XSPL:8, XSP16:16
          CFI VirtualResource ?RET:24
          CFI Resource ?BRET_EXT:8
          CFI VirtualResource ?RET_HIGH:8, ?RET_LOW:8
          CFI ResourceParts PSP16 PSPH, PSPL
          CFI ResourceParts XSP16 XSPH, XSPL
          CFI ResourceParts ?RET ?BRET_EXT, ?RET_HIGH, ?RET_LOW
          CFI EndNames cfiNames0
        
          CFI Common cfiCommon0 Using cfiNames0
          CFI CodeAlign 1
          CFI DataAlign -1
          CFI ReturnAddress ?RET CODE
          CFI CFA_DOVERLAY Used
          CFI CFA_IOVERLAY Used
          CFI CFA_SP SP+-3
          CFI CFA_PSP16 PSP16+0
          CFI CFA_XSP16 XSP16+0
          CFI `PSW.CY` SameValue
          CFI `B.BR0` SameValue
          CFI `B.BR1` SameValue
          CFI `B.BR2` SameValue
          CFI `B.BR3` SameValue
          CFI `B.BR4` SameValue
          CFI `B.BR5` SameValue
          CFI `B.BR6` SameValue
          CFI `B.BR7` SameValue
          CFI `VB.BR8` SameValue
          CFI `VB.BR9` SameValue
          CFI `VB.BR10` SameValue
          CFI `VB.BR11` SameValue
          CFI `VB.BR12` SameValue
          CFI `VB.BR13` SameValue
          CFI `VB.BR14` SameValue
          CFI `VB.BR15` SameValue
          CFI VB SameValue
          CFI B Undefined
          CFI A Undefined
          CFI PSW SameValue
          CFI DPL0 SameValue
          CFI DPH0 SameValue
          CFI R0 Undefined
          CFI R1 Undefined
          CFI R2 Undefined
          CFI R3 Undefined
          CFI R4 Undefined
          CFI R5 Undefined
          CFI R6 SameValue
          CFI R7 SameValue
          CFI V0 SameValue
          CFI V1 SameValue
          CFI V2 SameValue
          CFI V3 SameValue
          CFI V4 SameValue
          CFI V5 SameValue
          CFI V6 SameValue
          CFI V7 SameValue
          CFI PSPH Undefined
          CFI PSPL Undefined
          CFI XSPH Undefined
          CFI XSPL Undefined
          CFI ?RET Concat
          CFI ?BRET_EXT Frame(CFA_SP, 3)
          CFI ?RET_HIGH Frame(CFA_SP, 2)
          CFI ?RET_LOW Frame(CFA_SP, 1)
          CFI EndCommon cfiCommon0
        
        
          CFI Common cfiCommon1 Using cfiNames0
          CFI CodeAlign 1
          CFI DataAlign -1
          CFI ReturnAddress ?RET CODE
          CFI CFA_DOVERLAY Used
          CFI CFA_IOVERLAY Used
          CFI CFA_SP SP+-2
          CFI CFA_PSP16 PSP16+0
          CFI CFA_XSP16 XSP16+0
          CFI `PSW.CY` SameValue
          CFI `B.BR0` SameValue
          CFI `B.BR1` SameValue
          CFI `B.BR2` SameValue
          CFI `B.BR3` SameValue
          CFI `B.BR4` SameValue
          CFI `B.BR5` SameValue
          CFI `B.BR6` SameValue
          CFI `B.BR7` SameValue
          CFI `VB.BR8` SameValue
          CFI `VB.BR9` SameValue
          CFI `VB.BR10` SameValue
          CFI `VB.BR11` SameValue
          CFI `VB.BR12` SameValue
          CFI `VB.BR13` SameValue
          CFI `VB.BR14` SameValue
          CFI `VB.BR15` SameValue
          CFI VB SameValue
          CFI B SameValue
          CFI A SameValue
          CFI PSW SameValue
          CFI DPL0 SameValue
          CFI DPH0 SameValue
          CFI R0 SameValue
          CFI R1 SameValue
          CFI R2 SameValue
          CFI R3 SameValue
          CFI R4 SameValue
          CFI R5 SameValue
          CFI R6 SameValue
          CFI R7 SameValue
          CFI V0 SameValue
          CFI V1 SameValue
          CFI V2 SameValue
          CFI V3 SameValue
          CFI V4 SameValue
          CFI V5 SameValue
          CFI V6 SameValue
          CFI V7 SameValue
          CFI PSPH Undefined
          CFI PSPL Undefined
          CFI XSPH Undefined
          CFI XSPL Undefined
          CFI ?RET Concat
          CFI ?BRET_EXT SameValue
          CFI ?RET_HIGH Frame(CFA_SP, 2)
          CFI ?RET_LOW Frame(CFA_SP, 1)
          CFI EndCommon cfiCommon1
        
HalUARTOpen         SYMBOL "HalUARTOpen"
`??HalUARTOpen::?relay` SYMBOL "?relay", HalUARTOpen
HalUARTRead         SYMBOL "HalUARTRead"
`??HalUARTRead::?relay` SYMBOL "?relay", HalUARTRead
HalUARTWrite        SYMBOL "HalUARTWrite"
`??HalUARTWrite::?relay` SYMBOL "?relay", HalUARTWrite
Hal_UART_RxBufLen   SYMBOL "Hal_UART_RxBufLen"
`??Hal_UART_RxBufLen::?relay` SYMBOL "?relay", Hal_UART_RxBufLen
osal_start_timerEx  SYMBOL "osal_start_timerEx"
`??osal_start_timerEx::?relay` SYMBOL "?relay", osal_start_timerEx
osal_stop_timerEx   SYMBOL "osal_stop_timerEx"
`??osal_stop_timerEx::?relay` SYMBOL "?relay", osal_stop_timerEx
osal_strlen         SYMBOL "osal_strlen"
`??osal_strlen::?relay` SYMBOL "?relay", osal_strlen
zb_BindDevice       SYMBOL "zb_BindDevice"
`??zb_BindDevice::?relay` SYMBOL "?relay", zb_BindDevice
zb_ReadConfiguration SYMBOL "zb_ReadConfiguration"
`??zb_ReadConfiguration::?relay` SYMBOL "?relay", zb_ReadConfiguration
zb_SendDataRequest  SYMBOL "zb_SendDataRequest"
`??zb_SendDataRequest::?relay` SYMBOL "?relay", zb_SendDataRequest
zb_StartRequest     SYMBOL "zb_StartRequest"
`??zb_StartRequest::?relay` SYMBOL "?relay", zb_StartRequest
zb_SystemReset      SYMBOL "zb_SystemReset"
`??zb_SystemReset::?relay` SYMBOL "?relay", zb_SystemReset
zb_WriteConfiguration SYMBOL "zb_WriteConfiguration"
`??zb_WriteConfiguration::?relay` SYMBOL "?relay", zb_WriteConfiguration
zb_AllowBindConfirm SYMBOL "zb_AllowBindConfirm"
`??zb_AllowBindConfirm::?relay` SYMBOL "?relay", zb_AllowBindConfirm
zb_BindConfirm      SYMBOL "zb_BindConfirm"
`??zb_BindConfirm::?relay` SYMBOL "?relay", zb_BindConfirm
zb_FindDeviceConfirm SYMBOL "zb_FindDeviceConfirm"
`??zb_FindDeviceConfirm::?relay` SYMBOL "?relay", zb_FindDeviceConfirm
zb_HandleKeys       SYMBOL "zb_HandleKeys"
`??zb_HandleKeys::?relay` SYMBOL "?relay", zb_HandleKeys
zb_HandleOsalEvent  SYMBOL "zb_HandleOsalEvent"
`??zb_HandleOsalEvent::?relay` SYMBOL "?relay", zb_HandleOsalEvent
zb_ReceiveDataIndication SYMBOL "zb_ReceiveDataIndication"
`??zb_ReceiveDataIndication::?relay` SYMBOL "?relay", zb_ReceiveDataIndication
zb_SendDataConfirm  SYMBOL "zb_SendDataConfirm"
`??zb_SendDataConfirm::?relay` SYMBOL "?relay", zb_SendDataConfirm
zb_StartConfirm     SYMBOL "zb_StartConfirm"
`??zb_StartConfirm::?relay` SYMBOL "?relay", zb_StartConfirm

        EXTERN `??HalUARTOpen::?relay`
        FUNCTION `??HalUARTOpen::?relay`,00H
        EXTERN `??HalUARTRead::?relay`
        FUNCTION `??HalUARTRead::?relay`,00H
        EXTERN `??HalUARTWrite::?relay`
        FUNCTION `??HalUARTWrite::?relay`,00H
        EXTERN `??Hal_UART_RxBufLen::?relay`
        FUNCTION `??Hal_UART_RxBufLen::?relay`,00H
        EXTERN `??osal_start_timerEx::?relay`
        FUNCTION `??osal_start_timerEx::?relay`,00H
        EXTERN `??osal_stop_timerEx::?relay`
        FUNCTION `??osal_stop_timerEx::?relay`,00H
        EXTERN `??osal_strlen::?relay`
        FUNCTION `??osal_strlen::?relay`,00H
        EXTERN `??zb_BindDevice::?relay`
        FUNCTION `??zb_BindDevice::?relay`,00H
        EXTERN `??zb_ReadConfiguration::?relay`
        FUNCTION `??zb_ReadConfiguration::?relay`,00H
        EXTERN `??zb_SendDataRequest::?relay`
        FUNCTION `??zb_SendDataRequest::?relay`,00H
        EXTERN `??zb_StartRequest::?relay`
        FUNCTION `??zb_StartRequest::?relay`,00H
        EXTERN `??zb_SystemReset::?relay`
        FUNCTION `??zb_SystemReset::?relay`,00H
        EXTERN `??zb_WriteConfiguration::?relay`
        FUNCTION `??zb_WriteConfiguration::?relay`,00H
        EXTERN HalUARTOpen
        FUNCTION HalUARTOpen,0202H
        ARGFRAME ISTACK, 0, STACK
        ARGFRAME PSTACK, 0, STACK
        ARGFRAME XSTACK, 47, STACK
        ARGFRAME IOVERLAY, 0, STATIC
        ARGFRAME DOVERLAY, 0, STATIC
        EXTERN HalUARTRead
        FUNCTION HalUARTRead,0202H
        ARGFRAME ISTACK, 0, STACK
        ARGFRAME PSTACK, 0, STACK
        ARGFRAME XSTACK, 14, STACK
        ARGFRAME IOVERLAY, 0, STATIC
        ARGFRAME DOVERLAY, 0, STATIC
        EXTERN HalUARTWrite
        FUNCTION HalUARTWrite,0202H
        ARGFRAME ISTACK, 0, STACK
        ARGFRAME PSTACK, 0, STACK
        ARGFRAME XSTACK, 47, STACK
        ARGFRAME IOVERLAY, 0, STATIC
        ARGFRAME DOVERLAY, 0, STATIC
        EXTERN Hal_UART_RxBufLen
        FUNCTION Hal_UART_RxBufLen,0202H
        ARGFRAME ISTACK, 0, STACK
        ARGFRAME PSTACK, 0, STACK
        ARGFRAME XSTACK, 14, STACK
        ARGFRAME IOVERLAY, 0, STATIC
        ARGFRAME DOVERLAY, 0, STATIC
        EXTERN osal_start_timerEx
        FUNCTION osal_start_timerEx,0202H
        ARGFRAME ISTACK, 0, STACK
        ARGFRAME PSTACK, 0, STACK
        ARGFRAME XSTACK, 47, STACK
        ARGFRAME IOVERLAY, 0, STATIC
        ARGFRAME DOVERLAY, 0, STATIC
        EXTERN osal_stop_timerEx
        FUNCTION osal_stop_timerEx,0202H
        ARGFRAME ISTACK, 0, STACK
        ARGFRAME PSTACK, 0, STACK
        ARGFRAME XSTACK, 9, STACK
        ARGFRAME IOVERLAY, 0, STATIC
        ARGFRAME DOVERLAY, 0, STATIC
        EXTERN osal_strlen
        FUNCTION osal_strlen,0202H
        ARGFRAME ISTACK, 0, STACK
        ARGFRAME PSTACK, 0, STACK
        ARGFRAME XSTACK, 47, STACK
        ARGFRAME IOVERLAY, 0, STATIC
        ARGFRAME DOVERLAY, 0, STATIC
        EXTERN sapi_TaskID
        EXTERN zb_BindDevice
        FUNCTION zb_BindDevice,0202H
        ARGFRAME ISTACK, 0, STACK
        ARGFRAME PSTACK, 0, STACK
        ARGFRAME XSTACK, 47, STACK
        ARGFRAME IOVERLAY, 0, STATIC
        ARGFRAME DOVERLAY, 0, STATIC
        EXTERN zb_ReadConfiguration
        FUNCTION zb_ReadConfiguration,0202H
        ARGFRAME ISTACK, 0, STACK
        ARGFRAME PSTACK, 0, STACK
        ARGFRAME XSTACK, 47, STACK
        ARGFRAME IOVERLAY, 0, STATIC
        ARGFRAME DOVERLAY, 0, STATIC
        EXTERN zb_SendDataRequest
        FUNCTION zb_SendDataRequest,0202H
        ARGFRAME ISTACK, 0, STACK
        ARGFRAME PSTACK, 0, STACK
        ARGFRAME XSTACK, 52, STACK
        ARGFRAME IOVERLAY, 0, STATIC
        ARGFRAME DOVERLAY, 0, STATIC
        EXTERN zb_StartRequest
        FUNCTION zb_StartRequest,0202H
        ARGFRAME ISTACK, 0, STACK
        ARGFRAME PSTACK, 0, STACK
        ARGFRAME XSTACK, 47, STACK
        ARGFRAME IOVERLAY, 0, STATIC
        ARGFRAME DOVERLAY, 0, STATIC
        EXTERN zb_SystemReset
        FUNCTION zb_SystemReset,0202H
        ARGFRAME ISTACK, 0, STACK
        ARGFRAME PSTACK, 0, STACK
        ARGFRAME XSTACK, 14, STACK
        ARGFRAME IOVERLAY, 0, STATIC
        ARGFRAME DOVERLAY, 0, STATIC
        EXTERN zb_WriteConfiguration
        FUNCTION zb_WriteConfiguration,0202H
        ARGFRAME ISTACK, 0, STACK
        ARGFRAME PSTACK, 0, STACK
        ARGFRAME XSTACK, 47, STACK
        ARGFRAME IOVERLAY, 0, STATIC
        ARGFRAME DOVERLAY, 0, STATIC

// E:\DAT\bau-quang\CodeZigbee - CC2530\Projects\zstack\Samples\SimpleApp\Source\SimpleSensor.c
//    1 
//    2 /******************************************************************************
//    3  * INCLUDES
//    4  */
//    5 
//    6 #include "ZComDef.h"
//    7 #include "OSAL.h"
//    8 #include "sapi.h"
//    9 #include "hal_key.h"

        ASEGN SFR_AN:DATA:NOROOT,088H
// union <unnamed> volatile __sfr _A_TCON
_A_TCON:
        DATA8
        DS 1

        ASEGN SFR_AN:DATA:NOROOT,0b6H
// unsigned char volatile __sfr ADCCON3
ADCCON3:
        DATA8
        DS 1

        ASEGN SFR_AN:DATA:NOROOT,0baH
// unsigned char volatile __sfr ADCL
ADCL:
        DATA8
        DS 1

        ASEGN SFR_AN:DATA:NOROOT,0bbH
// unsigned char volatile __sfr ADCH
ADCH:
        DATA8
        DS 1
//   10 #include "hal_led.h"
//   11 #include "hal_adc.h"
//   12 #include "hal_mcu.h"
//   13 #include "SimpleApp.h"
//   14 #include "hal_uart.h"
//   15 
//   16 /*********************************************************************
//   17  * CONSTANTS
//   18  */
//   19 #define MY_ID  (uint8)1
//   20 // Application States
//   21 #define APP_INIT                           0    // Initial state
//   22 #define APP_START                          1    // Sensor has joined network
//   23 #define APP_BOUND                          2    // Sensor is bound to collector
//   24 
//   25 // Application osal event identifiers
//   26 // Bit mask of events ( from 0x0000 to 0x00FF )
//   27 #define MY_START_EVT                0x0001
//   28 #define MY_REPORT_TEMP_EVT          0x0002
//   29 #define MY_REPORT_BATT_EVT          0x0004
//   30 #define MY_FIND_COLLECTOR_EVT       0x0008
//   31 #define ID_REPORT_EVT               0x0010
//   32 
//   33 // ADC definitions for CC2430/CC2530 from the hal_adc.c file
//   34 #if defined (HAL_MCU_CC2430) || defined (HAL_MCU_CC2530)
//   35 #define HAL_ADC_REF_125V    0x00    /* Internal 1.25V Reference */
//   36 #define HAL_ADC_DEC_064     0x00    /* Decimate by 64 : 8-bit resolution */
//   37 #define HAL_ADC_DEC_128     0x10    /* Decimate by 128 : 10-bit resolution */
//   38 #define HAL_ADC_DEC_512     0x30    /* Decimate by 512 : 14-bit resolution */
//   39 #define HAL_ADC_CHN_VDD3    0x0f    /* Input channel: VDD/3 */
//   40 #define HAL_ADC_CHN_TEMP    0x0e    /* Temperature sensor */
//   41 #endif //HAL_MCU_CC2430 || HAL_MCU_CC2530
//   42 
//   43 /*********************************************************************
//   44  * TYPEDEFS
//   45  */
//   46 
//   47 /*********************************************************************
//   48  * LOCAL VARIABLES
//   49  */
//   50 

        RSEG XDATA_Z:XDATA:NOROOT(0)
        DATA8
//   51 static uint8 myAppState = APP_INIT;
myAppState:
        DS 1
        REQUIRE __INIT_XDATA_Z
//   52 

        RSEG XDATA_I:XDATA:NOROOT(0)
//   53 static uint16 myStartRetryDelay = 1000;      // milliseconds
myStartRetryDelay:
        DATA16
        DS 2
        REQUIRE `?<Initializer for myStartRetryDelay>`
        REQUIRE __INIT_XDATA_I

        RSEG XDATA_I:XDATA:NOROOT(0)
//   54 static uint16 myTempReportPeriod = 5000;     // milliseconds
myTempReportPeriod:
        DATA16
        DS 2
        REQUIRE `?<Initializer for myTempReportPeriod>`
        REQUIRE __INIT_XDATA_I

        RSEG XDATA_I:XDATA:NOROOT(0)
//   55 static uint16 myBatteryCheckPeriod = 15000;   // milliseconds
myBatteryCheckPeriod:
        DATA16
        DS 2
        REQUIRE `?<Initializer for myBatteryCheckPeriod>`
        REQUIRE __INIT_XDATA_I

        RSEG XDATA_I:XDATA:NOROOT(0)
//   56 static uint16 myBindRetryDelay = 1000;       // milliseconds
myBindRetryDelay:
        DATA16
        DS 2
        REQUIRE `?<Initializer for myBindRetryDelay>`
        REQUIRE __INIT_XDATA_I

        RSEG XDATA_I:XDATA:NOROOT(0)
//   57 static uint16 myIdReportPeriod = 2000;     // milliseconds
myIdReportPeriod:
        DATA16
        DS 2
        REQUIRE `?<Initializer for myIdReportPeriod>`
        REQUIRE __INIT_XDATA_I
//   58 
//   59 static void Uart0_Cb(uint8 port, uint8 event);
//   60 
//   61 /*********************************************************************
//   62  * GLOBAL VARIABLES
//   63  */
//   64 
//   65 // Inputs and Outputs for Sensor device
//   66 #define NUM_OUT_CMD_SENSOR                1
//   67 #define NUM_IN_CMD_SENSOR                 1
//   68 
//   69 // List of output and input commands for Sensor device

        RSEG XDATA_ROM_C:CONST:REORDER:NOROOT(0)
        DATA16
//   70 const cId_t zb_OutCmdList[NUM_OUT_CMD_SENSOR] =
zb_OutCmdList:
        DW 2
//   71 {
//   72   SENSOR_REPORT_CMD_ID
//   73 };
//   74 

        RSEG XDATA_ROM_C:CONST:REORDER:NOROOT(0)
        DATA16
//   75 const cId_t zb_InCmdList[NUM_IN_CMD_SENSOR] =
zb_InCmdList:
        DW 3
//   76 {
//   77   CTRL_PUMP_CMD_ID
//   78 };
//   79 
//   80 #define TEMP_REPORT     0x01
//   81 #define BATTERY_REPORT  0x02
//   82 #define ID_REPORT       0x04
//   83 
//   84 // Define SimpleDescriptor for Sensor device

        RSEG XDATA_ROM_C:CONST:REORDER:NOROOT(0)
        DATA8
//   85 const SimpleDescriptionFormat_t zb_SimpleDesc =
zb_SimpleDesc:
        DB 2
        DATA16
        DW 3856
        DW 3
        DATA8
        DB 1
        DB 1
        DATA16
        DW zb_InCmdList
        DATA8
        DB 1
        DATA16
        DW zb_OutCmdList
//   86 {
//   87   MY_ENDPOINT_ID,             //  Endpoint
//   88   MY_PROFILE_ID,              //  Profile ID
//   89   DEV_ID_SENSOR,              //  Device ID
//   90   DEVICE_VERSION_SENSOR,      //  Device Version
//   91   0,                          //  Reserved
//   92   NUM_IN_CMD_SENSOR,          //  Number of Input Commands
//   93   (cId_t *) zb_InCmdList,             //  Input Command List
//   94   NUM_OUT_CMD_SENSOR,         //  Number of Output Commands
//   95   (cId_t *) zb_OutCmdList     //  Output Command List
//   96 };
//   97 
//   98 
//   99 /*********************************************************************
//  100  * LOCAL FUNCTIONS
//  101  */
//  102 static void myApp_StartReporting( void );
//  103 static void myApp_StopReporting( void );
//  104 
//  105 static uint8 myApp_ReadTemperature( void );
//  106 static uint8 myApp_ReadBattery( void );
//  107 
//  108 /*****************************************************************************
//  109  * @fn          zb_HandleOsalEvent
//  110  *
//  111  * @brief       The zb_HandleOsalEvent function is called by the operating
//  112  *              system when a task event is set
//  113  *
//  114  * @param       event - Bitmask containing the events that have been set
//  115  *
//  116  * @return      none
//  117  */

        RSEG BANKED_CODE:HUGECODE:NOROOT(0)
//  118 void zb_HandleOsalEvent( uint16 event )
zb_HandleOsalEvent:
          CFI Block cfiBlock0 Using cfiCommon0
          CFI Function zb_HandleOsalEvent
        CODE
//  119 {
        FUNCALL zb_HandleOsalEvent, HalUARTOpen
        LOCFRAME ISTACK, 0, STACK
        LOCFRAME PSTACK, 0, STACK
        LOCFRAME XSTACK, 47, STACK
        LOCFRAME IOVERLAY, 0, STATIC
        LOCFRAME DOVERLAY, 0, STATIC
        ARGFRAME ISTACK, 0, STACK
        ARGFRAME PSTACK, 0, STACK
        ARGFRAME XSTACK, 47, STACK
        ARGFRAME IOVERLAY, 0, STATIC
        ARGFRAME DOVERLAY, 0, STATIC
        FUNCALL zb_HandleOsalEvent, osal_strlen
        LOCFRAME ISTACK, 0, STACK
        LOCFRAME PSTACK, 0, STACK
        LOCFRAME XSTACK, 47, STACK
        LOCFRAME IOVERLAY, 0, STATIC
        LOCFRAME DOVERLAY, 0, STATIC
        ARGFRAME ISTACK, 0, STACK
        ARGFRAME PSTACK, 0, STACK
        ARGFRAME XSTACK, 47, STACK
        ARGFRAME IOVERLAY, 0, STATIC
        ARGFRAME DOVERLAY, 0, STATIC
        FUNCALL zb_HandleOsalEvent, HalUARTWrite
        LOCFRAME ISTACK, 0, STACK
        LOCFRAME PSTACK, 0, STACK
        LOCFRAME XSTACK, 47, STACK
        LOCFRAME IOVERLAY, 0, STATIC
        LOCFRAME DOVERLAY, 0, STATIC
        ARGFRAME ISTACK, 0, STACK
        ARGFRAME PSTACK, 0, STACK
        ARGFRAME XSTACK, 47, STACK
        ARGFRAME IOVERLAY, 0, STATIC
        ARGFRAME DOVERLAY, 0, STATIC
        FUNCALL zb_HandleOsalEvent, zb_WriteConfiguration
        LOCFRAME ISTACK, 0, STACK
        LOCFRAME PSTACK, 0, STACK
        LOCFRAME XSTACK, 47, STACK
        LOCFRAME IOVERLAY, 0, STATIC
        LOCFRAME DOVERLAY, 0, STATIC
        ARGFRAME ISTACK, 0, STACK
        ARGFRAME PSTACK, 0, STACK
        ARGFRAME XSTACK, 47, STACK
        ARGFRAME IOVERLAY, 0, STATIC
        ARGFRAME DOVERLAY, 0, STATIC
        FUNCALL zb_HandleOsalEvent, zb_WriteConfiguration
        LOCFRAME ISTACK, 0, STACK
        LOCFRAME PSTACK, 0, STACK
        LOCFRAME XSTACK, 47, STACK
        LOCFRAME IOVERLAY, 0, STATIC
        LOCFRAME DOVERLAY, 0, STATIC
        ARGFRAME ISTACK, 0, STACK
        ARGFRAME PSTACK, 0, STACK
        ARGFRAME XSTACK, 47, STACK
        ARGFRAME IOVERLAY, 0, STATIC
        ARGFRAME DOVERLAY, 0, STATIC
        FUNCALL zb_HandleOsalEvent, zb_ReadConfiguration
        LOCFRAME ISTACK, 0, STACK
        LOCFRAME PSTACK, 0, STACK
        LOCFRAME XSTACK, 47, STACK
        LOCFRAME IOVERLAY, 0, STATIC
        LOCFRAME DOVERLAY, 0, STATIC
        ARGFRAME ISTACK, 0, STACK
        ARGFRAME PSTACK, 0, STACK
        ARGFRAME XSTACK, 47, STACK
        ARGFRAME IOVERLAY, 0, STATIC
        ARGFRAME DOVERLAY, 0, STATIC
        FUNCALL zb_HandleOsalEvent, zb_WriteConfiguration
        LOCFRAME ISTACK, 0, STACK
        LOCFRAME PSTACK, 0, STACK
        LOCFRAME XSTACK, 47, STACK
        LOCFRAME IOVERLAY, 0, STATIC
        LOCFRAME DOVERLAY, 0, STATIC
        ARGFRAME ISTACK, 0, STACK
        ARGFRAME PSTACK, 0, STACK
        ARGFRAME XSTACK, 47, STACK
        ARGFRAME IOVERLAY, 0, STATIC
        ARGFRAME DOVERLAY, 0, STATIC
        FUNCALL zb_HandleOsalEvent, zb_StartRequest
        LOCFRAME ISTACK, 0, STACK
        LOCFRAME PSTACK, 0, STACK
        LOCFRAME XSTACK, 47, STACK
        LOCFRAME IOVERLAY, 0, STATIC
        LOCFRAME DOVERLAY, 0, STATIC
        ARGFRAME ISTACK, 0, STACK
        ARGFRAME PSTACK, 0, STACK
        ARGFRAME XSTACK, 47, STACK
        ARGFRAME IOVERLAY, 0, STATIC
        ARGFRAME DOVERLAY, 0, STATIC
        FUNCALL zb_HandleOsalEvent, zb_SendDataRequest
        LOCFRAME ISTACK, 0, STACK
        LOCFRAME PSTACK, 0, STACK
        LOCFRAME XSTACK, 52, STACK
        LOCFRAME IOVERLAY, 0, STATIC
        LOCFRAME DOVERLAY, 0, STATIC
        ARGFRAME ISTACK, 0, STACK
        ARGFRAME PSTACK, 0, STACK
        ARGFRAME XSTACK, 52, STACK
        ARGFRAME IOVERLAY, 0, STATIC
        ARGFRAME DOVERLAY, 0, STATIC
        FUNCALL zb_HandleOsalEvent, osal_start_timerEx
        LOCFRAME ISTACK, 0, STACK
        LOCFRAME PSTACK, 0, STACK
        LOCFRAME XSTACK, 47, STACK
        LOCFRAME IOVERLAY, 0, STATIC
        LOCFRAME DOVERLAY, 0, STATIC
        ARGFRAME ISTACK, 0, STACK
        ARGFRAME PSTACK, 0, STACK
        ARGFRAME XSTACK, 47, STACK
        ARGFRAME IOVERLAY, 0, STATIC
        ARGFRAME DOVERLAY, 0, STATIC
        FUNCALL zb_HandleOsalEvent, zb_SendDataRequest
        LOCFRAME ISTACK, 0, STACK
        LOCFRAME PSTACK, 0, STACK
        LOCFRAME XSTACK, 52, STACK
        LOCFRAME IOVERLAY, 0, STATIC
        LOCFRAME DOVERLAY, 0, STATIC
        ARGFRAME ISTACK, 0, STACK
        ARGFRAME PSTACK, 0, STACK
        ARGFRAME XSTACK, 52, STACK
        ARGFRAME IOVERLAY, 0, STATIC
        ARGFRAME DOVERLAY, 0, STATIC
        FUNCALL zb_HandleOsalEvent, osal_start_timerEx
        LOCFRAME ISTACK, 0, STACK
        LOCFRAME PSTACK, 0, STACK
        LOCFRAME XSTACK, 47, STACK
        LOCFRAME IOVERLAY, 0, STATIC
        LOCFRAME DOVERLAY, 0, STATIC
        ARGFRAME ISTACK, 0, STACK
        ARGFRAME PSTACK, 0, STACK
        ARGFRAME XSTACK, 47, STACK
        ARGFRAME IOVERLAY, 0, STATIC
        ARGFRAME DOVERLAY, 0, STATIC
        FUNCALL zb_HandleOsalEvent, zb_BindDevice
        LOCFRAME ISTACK, 0, STACK
        LOCFRAME PSTACK, 0, STACK
        LOCFRAME XSTACK, 47, STACK
        LOCFRAME IOVERLAY, 0, STATIC
        LOCFRAME DOVERLAY, 0, STATIC
        ARGFRAME ISTACK, 0, STACK
        ARGFRAME PSTACK, 0, STACK
        ARGFRAME XSTACK, 47, STACK
        ARGFRAME IOVERLAY, 0, STATIC
        ARGFRAME DOVERLAY, 0, STATIC
        FUNCALL zb_HandleOsalEvent, zb_SendDataRequest
        LOCFRAME ISTACK, 0, STACK
        LOCFRAME PSTACK, 0, STACK
        LOCFRAME XSTACK, 52, STACK
        LOCFRAME IOVERLAY, 0, STATIC
        LOCFRAME DOVERLAY, 0, STATIC
        ARGFRAME ISTACK, 0, STACK
        ARGFRAME PSTACK, 0, STACK
        ARGFRAME XSTACK, 52, STACK
        ARGFRAME IOVERLAY, 0, STATIC
        ARGFRAME DOVERLAY, 0, STATIC
        FUNCALL zb_HandleOsalEvent, osal_start_timerEx
        LOCFRAME ISTACK, 0, STACK
        LOCFRAME PSTACK, 0, STACK
        LOCFRAME XSTACK, 47, STACK
        LOCFRAME IOVERLAY, 0, STATIC
        LOCFRAME DOVERLAY, 0, STATIC
        ARGFRAME ISTACK, 0, STACK
        ARGFRAME PSTACK, 0, STACK
        ARGFRAME XSTACK, 47, STACK
        ARGFRAME IOVERLAY, 0, STATIC
        ARGFRAME DOVERLAY, 0, STATIC
        REQUIRE ?V0
        REQUIRE ?V1
        REQUIRE ?V2
        REQUIRE ?V3
        REQUIRE ?V4
        REQUIRE ?V5
        REQUIRE ?V6
        REQUIRE ?V7
        MOV     A,#-0x10
        LCALL   ?BANKED_ENTER_XDATA
          CFI DPH0 load(1, XDATA, add(CFA_XSP16, literal(-1)))
          CFI DPL0 load(1, XDATA, add(CFA_XSP16, literal(-2)))
          CFI ?BRET_EXT load(1, XDATA, add(CFA_XSP16, literal(-3)))
          CFI ?RET_HIGH load(1, XDATA, add(CFA_XSP16, literal(-4)))
          CFI ?RET_LOW load(1, XDATA, add(CFA_XSP16, literal(-5)))
          CFI R7 load(1, XDATA, add(CFA_XSP16, literal(-6)))
          CFI V7 load(1, XDATA, add(CFA_XSP16, literal(-7)))
          CFI V6 load(1, XDATA, add(CFA_XSP16, literal(-8)))
          CFI V5 load(1, XDATA, add(CFA_XSP16, literal(-9)))
          CFI V4 load(1, XDATA, add(CFA_XSP16, literal(-10)))
          CFI V3 load(1, XDATA, add(CFA_XSP16, literal(-11)))
          CFI V2 load(1, XDATA, add(CFA_XSP16, literal(-12)))
          CFI V1 load(1, XDATA, add(CFA_XSP16, literal(-13)))
          CFI V0 load(1, XDATA, add(CFA_XSP16, literal(-14)))
          CFI VB load(1, XDATA, add(CFA_XSP16, literal(-15)))
          CFI R6 load(1, XDATA, add(CFA_XSP16, literal(-16)))
          CFI CFA_SP SP+0
          CFI CFA_XSP16 add(XSP16, 16)
        ; Saved register size: 16
        ; Auto size: 31
        MOV     A,#-0x1f
        LCALL   ?ALLOC_XSTACK8
          CFI CFA_XSP16 add(XSP16, 47)
        MOV     A,R2
        MOV     R6,A
        MOV     A,R3
//  120   static uint8 pData[2];
//  121   uint8 startOptions;
//  122   uint8 logicalType;
//  123   
//  124   
//  125   if ( event & ZB_ENTRY_EVENT )
        ANL     A,#0x10
        JNZ     $+5
        LJMP    ??zb_HandleOsalEvent_0 & 0xFFFF
//  126   {
//  127     halUARTCfg_t uConfig;
//  128     uConfig.configured = TRUE; 
        MOV     A,#0x2
        LCALL   ?XSTACK_DISP0_8
        MOV     A,#0x1
        MOVX    @DPTR,A
//  129     uConfig.baudRate = HAL_UART_BR_9600;
        MOV     A,#0x3
        LCALL   ?XSTACK_DISP0_8
        CLR     A
        MOVX    @DPTR,A
//  130     uConfig.flowControl = FALSE;
        MOV     A,#0x4
        LCALL   ?XSTACK_DISP0_8
        CLR     A
        MOVX    @DPTR,A
//  131     uConfig.flowControlThreshold = 48;
        MOV     A,#0x5
        LCALL   ?XSTACK_DISP0_8
        MOV     A,#0x30
        MOVX    @DPTR,A
        INC     DPTR
        CLR     A
        MOVX    @DPTR,A
//  132     uConfig.idleTimeout = 6; 
        MOV     A,#0x7
        LCALL   ?XSTACK_DISP0_8
        MOV     A,#0x6
        MOVX    @DPTR,A
//  133     uConfig.rx.maxBufSize = 128;
        MOV     A,#0xc
        LCALL   ?XSTACK_DISP0_8
        MOV     A,#-0x80
        MOVX    @DPTR,A
        INC     DPTR
        CLR     A
        MOVX    @DPTR,A
//  134     uConfig.tx.maxBufSize = 128;      
        MOV     A,#0x14
        LCALL   ?XSTACK_DISP0_8
        MOV     A,#-0x80
        MOVX    @DPTR,A
        INC     DPTR
        CLR     A
        MOVX    @DPTR,A
//  135     uConfig.intEnable = TRUE;//enable interrupts
        MOV     A,#0x18
        LCALL   ?XSTACK_DISP0_8
        MOV     A,#0x1
        MOVX    @DPTR,A
//  136     uConfig.callBackFunc = &Uart0_Cb;
        MOV     A,#0x1d
        LCALL   ?XSTACK_DISP0_8
        MOV     A,#`??Uart0_Cb::?relay` & 0xff
        MOVX    @DPTR,A
        INC     DPTR
        MOV     A,#(`??Uart0_Cb::?relay` >> 8) & 0xff
        MOVX    @DPTR,A
//  137     HalUARTOpen(HAL_UART_PORT_0,&uConfig);
        ; Setup parameters for call to function HalUARTOpen
        MOV     A,#0x2
        LCALL   ?XSTACK_DISP101_8
        MOV     R1,#0x0
        LCALL   `??HalUARTOpen::?relay`; Banked call to: HalUARTOpen
//  138     HalUARTWrite(HAL_UART_PORT_0,"\nENTRY\n", (byte)osal_strlen("\nENTRY\n")); 
        MOV     ?V0,#`?<Constant "\\nENTRY\\n">` & 0xff
        MOV     ?V1,#(`?<Constant "\\nENTRY\\n">` >> 8) & 0xff
        ; Setup parameters for call to function osal_strlen
        MOV     R2,?V0
        MOV     R3,?V1
        LCALL   `??osal_strlen::?relay`; Banked call to: osal_strlen
        MOV     ?V2,R2
        ; Setup parameters for call to function HalUARTWrite
        MOV     R4,?V2
        MOV     R5,#0x0
        MOV     R2,?V0
        MOV     R3,?V1
        MOV     R1,#0x0
        LCALL   `??HalUARTWrite::?relay`; Banked call to: HalUARTWrite
//  139     
//  140     startOptions = ZCD_STARTOPT_CLEAR_STATE | ZCD_STARTOPT_CLEAR_CONFIG;    
        MOV     DPL,?XSP + 0
        MOV     DPH,?XSP + 1
        MOV     A,#0x3
        MOVX    @DPTR,A
//  141     zb_WriteConfiguration( ZCD_NV_STARTUP_OPTION, sizeof(uint8), &startOptions );
        ; Setup parameters for call to function zb_WriteConfiguration
        MOV     R4,?XSP + 0
        MOV     R5,?XSP + 1
        MOV     R2,#0x1
        MOV     R1,A
        LCALL   `??zb_WriteConfiguration::?relay`; Banked call to: zb_WriteConfiguration
//  142     
//  143     logicalType = ZG_DEVICETYPE_ENDDEVICE;
        MOV     A,#0x1
        LCALL   ?XSTACK_DISP0_8
        MOV     A,#0x2
        MOVX    @DPTR,A
//  144     zb_WriteConfiguration(ZCD_NV_LOGICAL_TYPE, sizeof(uint8), &logicalType);
        ; Setup parameters for call to function zb_WriteConfiguration
        DEC     A
        LCALL   ?XSTACK_DISP102_8
        MOV     R2,#0x1
        MOV     R1,#-0x79
        LCALL   `??zb_WriteConfiguration::?relay`; Banked call to: zb_WriteConfiguration
//  145     
//  146     zb_ReadConfiguration( ZCD_NV_STARTUP_OPTION, sizeof(uint8), &startOptions );
        ; Setup parameters for call to function zb_ReadConfiguration
        MOV     R4,?XSP + 0
        MOV     R5,?XSP + 1
        MOV     R2,#0x1
        MOV     R1,#0x3
        LCALL   `??zb_ReadConfiguration::?relay`; Banked call to: zb_ReadConfiguration
//  147     startOptions = ZCD_STARTOPT_AUTO_START;
        MOV     DPL,?XSP + 0
        MOV     DPH,?XSP + 1
        MOV     A,#0x4
        MOVX    @DPTR,A
//  148     zb_WriteConfiguration( ZCD_NV_STARTUP_OPTION, sizeof(uint8), &startOptions );
        ; Setup parameters for call to function zb_WriteConfiguration
        MOV     R4,?XSP + 0
        MOV     R5,?XSP + 1
        MOV     R2,#0x1
        MOV     R1,#0x3
        LCALL   `??zb_WriteConfiguration::?relay`; Banked call to: zb_WriteConfiguration
//  149     
//  150     zb_StartRequest();
        ; Setup parameters for call to function zb_StartRequest
        LCALL   `??zb_StartRequest::?relay`; Banked call to: zb_StartRequest
//  151   }
//  152   if ( event & MY_REPORT_TEMP_EVT )
??zb_HandleOsalEvent_0:
        MOV     A,R6
        ANL     A,#0x2
        JNZ     $+5
        LJMP    ??zb_HandleOsalEvent_1 & 0xFFFF
//  153   {
//  154     pData[0] = TEMP_REPORT;
        MOV     DPTR,#??pData
        MOV     A,#0x1
        MOVX    @DPTR,A
//  155     pData[1] =  myApp_ReadTemperature();
        CLR     0x88.5
        MOV     0xb6,#0x3e
??zb_HandleOsalEvent_2:
        MOV     C,0x88.5
        JNC     ??zb_HandleOsalEvent_2
        MOV     R0,0xba+0x0
        MOV     R3,0xbb
        MOV     A,R3
        MOV     R1,A
        CLR     C
        MOV     A,R0
        SUBB    A,#0x26
        MOV     A,R1
        SUBB    A,#0x14
        JNC     ??zb_HandleOsalEvent_3
        MOV     R0,#0x26
        MOV     R1,#0x14
??zb_HandleOsalEvent_3:
        MOV     A,R0
        ADD     A,#-0x26
        MOV     R0,A
        MOV     A,R1
        ADDC    A,#-0x15
        MOV     R1,A
        CLR     C
        MOV     A,R0
        SUBB    A,#0x6b
        MOV     A,R1
        SUBB    A,#0x5
        JC      ??zb_HandleOsalEvent_4
        MOV     R0,#0x6a
        MOV     R1,#0x5
??zb_HandleOsalEvent_4:
        MOV     R2,#0xe
        MOV     R3,#0x0
        LCALL   ?US_DIV_MOD
        MOV     A,R0
        INC     DPTR
        LCALL   ?Subroutine2 & 0xFFFF
//  156     zb_SendDataRequest( 0xFFFE, SENSOR_REPORT_CMD_ID, 2, pData, 0, AF_ACK_REQUEST, 0 );
??CrossCallReturnLabel_0:
        LCALL   ?PUSH_XSTACK_I_ONE
          CFI CFA_XSP16 add(XSP16, 48)
        MOV     ?V0,#0x10
        MOV     R0,#?V0
        LCALL   ?PUSH_XSTACK_I_ONE
          CFI CFA_XSP16 add(XSP16, 49)
        MOV     ?V0,#0x0
        MOV     R0,#?V0
        LCALL   ?PUSH_XSTACK_I_ONE
          CFI CFA_XSP16 add(XSP16, 50)
        MOV     ?V0,#??pData & 0xff
        MOV     ?V1,#(??pData >> 8) & 0xff
        MOV     R0,#?V0
        LCALL   ?PUSH_XSTACK_I_TWO
          CFI CFA_XSP16 add(XSP16, 52)
        MOV     R1,#0x2
        MOV     R4,#0x2
        MOV     R5,#0x0
        MOV     R2,#-0x2
        MOV     R3,#-0x1
        LCALL   `??zb_SendDataRequest::?relay`; Banked call to: zb_SendDataRequest
        MOV     A,#0x5
        LCALL   ?DEALLOC_XSTACK8
          CFI CFA_XSP16 add(XSP16, 47)
//  157     //0xFFFE Gui toi thiet bi dang Bind
//  158     //HalUARTWrite(HAL_UART_PORT_0,"REPORT_TEMP\n", (byte)osal_strlen("REPORT_TEMP\n")); 
//  159     osal_start_timerEx( sapi_TaskID, MY_REPORT_TEMP_EVT, myTempReportPeriod );
        ; Setup parameters for call to function osal_start_timerEx
        MOV     DPTR,#myTempReportPeriod
        LCALL   ??Subroutine4_0 & 0xFFFF
//  160   }
??CrossCallReturnLabel_3:
        MOV     R2,#0x2
        MOV     R3,#0x0
        MOV     DPTR,#sapi_TaskID
        MOVX    A,@DPTR
        MOV     R1,A
        LCALL   `??osal_start_timerEx::?relay`; Banked call to: osal_start_timerEx
//  161 
//  162   if ( event & MY_REPORT_BATT_EVT )
??zb_HandleOsalEvent_1:
        MOV     A,R6
        ANL     A,#0x4
        JNZ     $+5
        LJMP    ??zb_HandleOsalEvent_5 & 0xFFFF
//  163   {
//  164     pData[0] = BATTERY_REPORT;
        MOV     DPTR,#??pData
        MOV     A,#0x2
        MOVX    @DPTR,A
//  165     pData[1] =  myApp_ReadBattery();
        CLR     0x88.5
        MOV     0xb6,#0x1f
??zb_HandleOsalEvent_6:
        MOV     C,0x88.5
        JNC     ??zb_HandleOsalEvent_6
        MOV     R0,0xba+0x0
        MOV     R3,0xbb
        MOV     A,R0
        MOV     ?V4,A
        MOV     A,R3
        MOV     ?V5,A
        MOV     A,#0x6
        MOV     R0,#?V4
        LCALL   ?US_SHR
        MOV     ?V6,A
        MOV     ?V7,A
        MOV     R0,#?V4
        LCALL   ?UL_TO_FLT
        MOV     DPTR,#__Constant_42160000
        MOV     R0,#?V0
        LCALL   ?L_MOV_X
        MOV     R0,#?V4
        MOV     R1,#?V0
        LCALL   ?FLT_MUL
        MOV     R0,#?V4
        LCALL   ?FLT_TO_L
        MOV     A,#0x9
        MOV     R0,#?V4
        LCALL   ?US_SHR
        MOV     A,?V4
        MOV     DPTR,#??pData + 1
        LCALL   ?Subroutine2 & 0xFFFF
//  166     zb_SendDataRequest( 0xFFFE, SENSOR_REPORT_CMD_ID, 2, pData, 0, AF_ACK_REQUEST, 0 );
??CrossCallReturnLabel_1:
        LCALL   ?PUSH_XSTACK_I_ONE
          CFI CFA_XSP16 add(XSP16, 48)
        MOV     ?V0,#0x10
        MOV     R0,#?V0
        LCALL   ?PUSH_XSTACK_I_ONE
          CFI CFA_XSP16 add(XSP16, 49)
        MOV     ?V0,#0x0
        MOV     R0,#?V0
        LCALL   ?PUSH_XSTACK_I_ONE
          CFI CFA_XSP16 add(XSP16, 50)
        MOV     ?V0,#??pData & 0xff
        MOV     ?V1,#(??pData >> 8) & 0xff
        MOV     R0,#?V0
        LCALL   ?PUSH_XSTACK_I_TWO
          CFI CFA_XSP16 add(XSP16, 52)
        MOV     R1,#0x2
        MOV     R4,#0x2
        MOV     R5,#0x0
        MOV     R2,#-0x2
        MOV     R3,#-0x1
        LCALL   `??zb_SendDataRequest::?relay`; Banked call to: zb_SendDataRequest
        MOV     A,#0x5
        LCALL   ?DEALLOC_XSTACK8
          CFI CFA_XSP16 add(XSP16, 47)
//  167     //HalUARTWrite(HAL_UART_PORT_0,"REPORT_BATT\n", (byte)osal_strlen("REPORT_BATT\n")); 
//  168     osal_start_timerEx( sapi_TaskID, MY_REPORT_BATT_EVT, myBatteryCheckPeriod );
        ; Setup parameters for call to function osal_start_timerEx
        MOV     DPTR,#myBatteryCheckPeriod
        LCALL   ??Subroutine4_0 & 0xFFFF
//  169   }
??CrossCallReturnLabel_4:
        MOV     R2,#0x4
        MOV     R3,#0x0
        MOV     DPTR,#sapi_TaskID
        MOVX    A,@DPTR
        MOV     R1,A
        LCALL   `??osal_start_timerEx::?relay`; Banked call to: osal_start_timerEx
//  170 
//  171   if ( event & MY_FIND_COLLECTOR_EVT )
??zb_HandleOsalEvent_5:
        MOV     A,R6
        ANL     A,#0x8
        JZ      ??zb_HandleOsalEvent_7
//  172   {
//  173     //HalUARTWrite(HAL_UART_PORT_0,"FIND_COLLECTOR\n", (byte)osal_strlen("FIND_COLLECTOR\n"));  
//  174     zb_BindDevice( TRUE, SENSOR_REPORT_CMD_ID, (uint8 *)NULL );
        ; Setup parameters for call to function zb_BindDevice
        MOV     R4,#0x0
        MOV     R5,#0x0
        MOV     R2,#0x2
        MOV     R3,#0x0
        MOV     R1,#0x1
        LCALL   `??zb_BindDevice::?relay`; Banked call to: zb_BindDevice
//  175   }
//  176   
//  177   if ( event & ID_REPORT_EVT )
??zb_HandleOsalEvent_7:
        MOV     A,R6
        ANL     A,#0x10
        JZ      ??zb_HandleOsalEvent_8
//  178   {
//  179     pData[0] = ID_REPORT;
        MOV     DPTR,#??pData
        MOV     A,#0x4
        MOVX    @DPTR,A
//  180     pData[1] =  MY_ID;
        INC     DPTR
        MOV     A,#0x1
        LCALL   ?Subroutine2 & 0xFFFF
//  181     zb_SendDataRequest( 0xFFFE, SENSOR_REPORT_CMD_ID, 2, pData, 0, AF_ACK_REQUEST, 0 );
??CrossCallReturnLabel_2:
        LCALL   ?PUSH_XSTACK_I_ONE
          CFI CFA_XSP16 add(XSP16, 48)
        MOV     ?V0,#0x10
        MOV     R0,#?V0
        LCALL   ?PUSH_XSTACK_I_ONE
          CFI CFA_XSP16 add(XSP16, 49)
        MOV     ?V0,#0x0
        MOV     R0,#?V0
        LCALL   ?PUSH_XSTACK_I_ONE
          CFI CFA_XSP16 add(XSP16, 50)
        MOV     ?V0,#??pData & 0xff
        MOV     ?V1,#(??pData >> 8) & 0xff
        MOV     R0,#?V0
        LCALL   ?PUSH_XSTACK_I_TWO
          CFI CFA_XSP16 add(XSP16, 52)
        MOV     R1,#0x2
        MOV     R4,#0x2
        MOV     R5,#0x0
        MOV     R2,#-0x2
        MOV     R3,#-0x1
        LCALL   `??zb_SendDataRequest::?relay`; Banked call to: zb_SendDataRequest
        MOV     A,#0x5
        LCALL   ?DEALLOC_XSTACK8
          CFI CFA_XSP16 add(XSP16, 47)
//  182     //0xFFFE Gui toi thiet bi dang Bind
//  183     //HalUARTWrite(HAL_UART_PORT_0,"REPORT_ID\n", (byte)osal_strlen("REPORT_ID\n")); 
//  184     osal_start_timerEx( sapi_TaskID, ID_REPORT_EVT, myIdReportPeriod );
        ; Setup parameters for call to function osal_start_timerEx
        LCALL   ?Subroutine1 & 0xFFFF
//  185   }
??CrossCallReturnLabel_8:
        MOV     R2,#0x10
        MOV     R3,#0x0
        MOV     DPTR,#sapi_TaskID
        MOVX    A,@DPTR
        MOV     R1,A
        LCALL   `??osal_start_timerEx::?relay`; Banked call to: osal_start_timerEx
//  186 
//  187 }
??zb_HandleOsalEvent_8:
        MOV     A,#0x1f
        LCALL   ?DEALLOC_XSTACK8
          CFI CFA_XSP16 add(XSP16, 16)
        MOV     R7,#0x8
        LJMP    ?BANKED_LEAVE_XDATA
          CFI EndBlock cfiBlock0
        REQUIRE _A_TCON
        REQUIRE ADCCON3
        REQUIRE ADCL
        REQUIRE ADCH

        RSEG BANKED_CODE:HUGECODE:NOROOT(0)
?Subroutine2:
          CFI Block cfiCond1 Using cfiCommon0
          CFI Function zb_HandleOsalEvent
          CFI Conditional ??CrossCallReturnLabel_0
          CFI R6 load(1, XDATA, add(CFA_XSP16, literal(-16)))
          CFI VB load(1, XDATA, add(CFA_XSP16, literal(-15)))
          CFI V0 load(1, XDATA, add(CFA_XSP16, literal(-14)))
          CFI V1 load(1, XDATA, add(CFA_XSP16, literal(-13)))
          CFI V2 load(1, XDATA, add(CFA_XSP16, literal(-12)))
          CFI V3 load(1, XDATA, add(CFA_XSP16, literal(-11)))
          CFI V4 load(1, XDATA, add(CFA_XSP16, literal(-10)))
          CFI V5 load(1, XDATA, add(CFA_XSP16, literal(-9)))
          CFI V6 load(1, XDATA, add(CFA_XSP16, literal(-8)))
          CFI V7 load(1, XDATA, add(CFA_XSP16, literal(-7)))
          CFI R7 load(1, XDATA, add(CFA_XSP16, literal(-6)))
          CFI ?RET_LOW load(1, XDATA, add(CFA_XSP16, literal(-5)))
          CFI ?RET_HIGH load(1, XDATA, add(CFA_XSP16, literal(-4)))
          CFI ?BRET_EXT load(1, XDATA, add(CFA_XSP16, literal(-3)))
          CFI DPL0 load(1, XDATA, add(CFA_XSP16, literal(-2)))
          CFI DPH0 load(1, XDATA, add(CFA_XSP16, literal(-1)))
          CFI CFA_SP SP+-2
          CFI CFA_XSP16 add(XSP16, 47)
          CFI Block cfiCond2 Using cfiCommon0
          CFI (cfiCond2) Function zb_HandleOsalEvent
          CFI (cfiCond2) Conditional ??CrossCallReturnLabel_1
          CFI (cfiCond2) R6 load(1, XDATA, add(CFA_XSP16, literal(-16)))
          CFI (cfiCond2) VB load(1, XDATA, add(CFA_XSP16, literal(-15)))
          CFI (cfiCond2) V0 load(1, XDATA, add(CFA_XSP16, literal(-14)))
          CFI (cfiCond2) V1 load(1, XDATA, add(CFA_XSP16, literal(-13)))
          CFI (cfiCond2) V2 load(1, XDATA, add(CFA_XSP16, literal(-12)))
          CFI (cfiCond2) V3 load(1, XDATA, add(CFA_XSP16, literal(-11)))
          CFI (cfiCond2) V4 load(1, XDATA, add(CFA_XSP16, literal(-10)))
          CFI (cfiCond2) V5 load(1, XDATA, add(CFA_XSP16, literal(-9)))
          CFI (cfiCond2) V6 load(1, XDATA, add(CFA_XSP16, literal(-8)))
          CFI (cfiCond2) V7 load(1, XDATA, add(CFA_XSP16, literal(-7)))
          CFI (cfiCond2) R7 load(1, XDATA, add(CFA_XSP16, literal(-6)))
          CFI (cfiCond2) ?RET_LOW load(1, XDATA, add(CFA_XSP16, literal(-5)))
          CFI (cfiCond2) ?RET_HIGH load(1, XDATA, add(CFA_XSP16, literal(-4)))
          CFI (cfiCond2) ?BRET_EXT load(1, XDATA, add(CFA_XSP16, literal(-3)))
          CFI (cfiCond2) DPL0 load(1, XDATA, add(CFA_XSP16, literal(-2)))
          CFI (cfiCond2) DPH0 load(1, XDATA, add(CFA_XSP16, literal(-1)))
          CFI (cfiCond2) CFA_SP SP+-2
          CFI (cfiCond2) CFA_XSP16 add(XSP16, 47)
          CFI Block cfiCond3 Using cfiCommon0
          CFI (cfiCond3) Function zb_HandleOsalEvent
          CFI (cfiCond3) Conditional ??CrossCallReturnLabel_2
          CFI (cfiCond3) R6 load(1, XDATA, add(CFA_XSP16, literal(-16)))
          CFI (cfiCond3) VB load(1, XDATA, add(CFA_XSP16, literal(-15)))
          CFI (cfiCond3) V0 load(1, XDATA, add(CFA_XSP16, literal(-14)))
          CFI (cfiCond3) V1 load(1, XDATA, add(CFA_XSP16, literal(-13)))
          CFI (cfiCond3) V2 load(1, XDATA, add(CFA_XSP16, literal(-12)))
          CFI (cfiCond3) V3 load(1, XDATA, add(CFA_XSP16, literal(-11)))
          CFI (cfiCond3) V4 load(1, XDATA, add(CFA_XSP16, literal(-10)))
          CFI (cfiCond3) V5 load(1, XDATA, add(CFA_XSP16, literal(-9)))
          CFI (cfiCond3) V6 load(1, XDATA, add(CFA_XSP16, literal(-8)))
          CFI (cfiCond3) V7 load(1, XDATA, add(CFA_XSP16, literal(-7)))
          CFI (cfiCond3) R7 load(1, XDATA, add(CFA_XSP16, literal(-6)))
          CFI (cfiCond3) ?RET_LOW load(1, XDATA, add(CFA_XSP16, literal(-5)))
          CFI (cfiCond3) ?RET_HIGH load(1, XDATA, add(CFA_XSP16, literal(-4)))
          CFI (cfiCond3) ?BRET_EXT load(1, XDATA, add(CFA_XSP16, literal(-3)))
          CFI (cfiCond3) DPL0 load(1, XDATA, add(CFA_XSP16, literal(-2)))
          CFI (cfiCond3) DPH0 load(1, XDATA, add(CFA_XSP16, literal(-1)))
          CFI (cfiCond3) CFA_SP SP+-2
          CFI (cfiCond3) CFA_XSP16 add(XSP16, 47)
          CFI Block cfiPicker4 Using cfiCommon1
          CFI (cfiPicker4) NoFunction
          CFI (cfiPicker4) Picker
        MOVX    @DPTR,A
        ; Setup parameters for call to function zb_SendDataRequest
        ; Setup parameters for call to function zb_SendDataRequest
        ; Setup parameters for call to function zb_SendDataRequest
        MOV     ?V0,#0x0
        MOV     R0,#?V0
        RET
          CFI EndBlock cfiCond1
          CFI EndBlock cfiCond2
          CFI EndBlock cfiCond3
          CFI EndBlock cfiPicker4

        RSEG XDATA_Z:XDATA:NOROOT(0)
        DATA16
??pData:
        DS 2
        REQUIRE __INIT_XDATA_Z
//  188 /*********************************************************************
//  189  * @fn      zb_HandleKeys
//  190  *
//  191  * @brief   Handles all key events for this device.
//  192  *
//  193  * @param   shift - true if in shift/alt.
//  194  * @param   keys - bit field for key events. Valid entries:
//  195  *                 EVAL_SW4
//  196  *                 EVAL_SW3
//  197  *                 EVAL_SW2
//  198  *                 EVAL_SW1
//  199  *
//  200  * @return  none
//  201  */

        RSEG BANKED_CODE:HUGECODE:NOROOT(0)
//  202 void zb_HandleKeys( uint8 shift, uint8 keys )
zb_HandleKeys:
          CFI Block cfiBlock5 Using cfiCommon0
          CFI Function zb_HandleKeys
        CODE
//  203 {
        ; Saved register size: 0
        ; Auto size: 0
//  204   return;
        LJMP    ?BRET
//  205 }
          CFI EndBlock cfiBlock5
//  206 /******************************************************************************
//  207  * @fn          zb_StartConfirm
//  208  *
//  209  * @brief       The zb_StartConfirm callback is called by the ZigBee stack
//  210  *              after a start request operation completes
//  211  *
//  212  * @param       status - The status of the start operation.  Status of
//  213  *                       ZB_SUCCESS indicates the start operation completed
//  214  *                       successfully.  Else the status is an error code.
//  215  *
//  216  * @return      none
//  217  */

        RSEG BANKED_CODE:HUGECODE:NOROOT(0)
//  218 void zb_StartConfirm( uint8 status )
zb_StartConfirm:
          CFI Block cfiBlock6 Using cfiCommon0
          CFI Function zb_StartConfirm
        CODE
//  219 {
        FUNCALL zb_StartConfirm, osal_start_timerEx
        LOCFRAME ISTACK, 0, STACK
        LOCFRAME PSTACK, 0, STACK
        LOCFRAME XSTACK, 9, STACK
        LOCFRAME IOVERLAY, 0, STATIC
        LOCFRAME DOVERLAY, 0, STATIC
        ARGFRAME ISTACK, 0, STACK
        ARGFRAME PSTACK, 0, STACK
        ARGFRAME XSTACK, 9, STACK
        ARGFRAME IOVERLAY, 0, STATIC
        ARGFRAME DOVERLAY, 0, STATIC
        FUNCALL zb_StartConfirm, osal_start_timerEx
        LOCFRAME ISTACK, 0, STACK
        LOCFRAME PSTACK, 0, STACK
        LOCFRAME XSTACK, 9, STACK
        LOCFRAME IOVERLAY, 0, STATIC
        LOCFRAME DOVERLAY, 0, STATIC
        ARGFRAME ISTACK, 0, STACK
        ARGFRAME PSTACK, 0, STACK
        ARGFRAME XSTACK, 9, STACK
        ARGFRAME IOVERLAY, 0, STATIC
        ARGFRAME DOVERLAY, 0, STATIC
        MOV     A,#-0x9
        LCALL   ?BANKED_ENTER_XDATA
          CFI DPH0 load(1, XDATA, add(CFA_XSP16, literal(-1)))
          CFI DPL0 load(1, XDATA, add(CFA_XSP16, literal(-2)))
          CFI ?BRET_EXT load(1, XDATA, add(CFA_XSP16, literal(-3)))
          CFI ?RET_HIGH load(1, XDATA, add(CFA_XSP16, literal(-4)))
          CFI ?RET_LOW load(1, XDATA, add(CFA_XSP16, literal(-5)))
          CFI R7 load(1, XDATA, add(CFA_XSP16, literal(-6)))
          CFI V0 load(1, XDATA, add(CFA_XSP16, literal(-7)))
          CFI VB load(1, XDATA, add(CFA_XSP16, literal(-8)))
          CFI R6 load(1, XDATA, add(CFA_XSP16, literal(-9)))
          CFI CFA_SP SP+0
          CFI CFA_XSP16 add(XSP16, 9)
        ; Saved register size: 9
        ; Auto size: 0
        MOV     A,R1
//  220   if ( status == ZB_SUCCESS )
        JNZ     ??zb_StartConfirm_0
//  221   {
//  222     myAppState = APP_START;
        MOV     DPTR,#myAppState
        MOV     A,#0x1
        MOVX    @DPTR,A
//  223 
//  224     // Set event to bind to a collector
//  225     osal_start_timerEx( sapi_TaskID, MY_FIND_COLLECTOR_EVT, myBindRetryDelay );
        ; Setup parameters for call to function osal_start_timerEx
        MOV     DPTR,#myBindRetryDelay
        LCALL   ??Subroutine4_0 & 0xFFFF
//  226   }
??CrossCallReturnLabel_5:
        MOV     R2,#0x8
        SJMP    ??zb_StartConfirm_1
//  227   else
//  228   {
//  229     // Try joining again later with a delay
//  230     osal_start_timerEx( sapi_TaskID, MY_START_EVT, myStartRetryDelay );
??zb_StartConfirm_0:
        ; Setup parameters for call to function osal_start_timerEx
        MOV     DPTR,#myStartRetryDelay
        LCALL   ??Subroutine4_0 & 0xFFFF
//  231   }
??CrossCallReturnLabel_6:
        MOV     R2,#0x1
??zb_StartConfirm_1:
          CFI EndBlock cfiBlock6
        REQUIRE ?Subroutine0
        ; // Fall through to label ?Subroutine0
//  232 }

        RSEG BANKED_CODE:HUGECODE:NOROOT(0)
?Subroutine0:
          CFI Block cfiBlock7 Using cfiCommon0
          CFI NoFunction
          CFI CFA_SP SP+0
          CFI CFA_XSP16 add(XSP16, 9)
          CFI VB load(1, XDATA, add(CFA_XSP16, literal(-8)))
          CFI DPL0 load(1, XDATA, add(CFA_XSP16, literal(-2)))
          CFI DPH0 load(1, XDATA, add(CFA_XSP16, literal(-1)))
          CFI R6 load(1, XDATA, add(CFA_XSP16, literal(-9)))
          CFI R7 load(1, XDATA, add(CFA_XSP16, literal(-6)))
          CFI V0 load(1, XDATA, add(CFA_XSP16, literal(-7)))
          CFI ?BRET_EXT load(1, XDATA, add(CFA_XSP16, literal(-3)))
          CFI ?RET_HIGH load(1, XDATA, add(CFA_XSP16, literal(-4)))
          CFI ?RET_LOW load(1, XDATA, add(CFA_XSP16, literal(-5)))
        MOV     R3,#0x0
        MOV     DPTR,#sapi_TaskID
        MOVX    A,@DPTR
        MOV     R1,A
        LCALL   `??osal_start_timerEx::?relay`; Banked call to: osal_start_timerEx
          CFI EndBlock cfiBlock7
        REQUIRE ??Subroutine3_0
        ; // Fall through to label ??Subroutine3_0

        RSEG BANKED_CODE:HUGECODE:NOROOT(0)
??Subroutine3_0:
          CFI Block cfiBlock8 Using cfiCommon0
          CFI NoFunction
          CFI CFA_SP SP+0
          CFI CFA_XSP16 add(XSP16, 9)
          CFI VB load(1, XDATA, add(CFA_XSP16, literal(-8)))
          CFI DPL0 load(1, XDATA, add(CFA_XSP16, literal(-2)))
          CFI DPH0 load(1, XDATA, add(CFA_XSP16, literal(-1)))
          CFI R6 load(1, XDATA, add(CFA_XSP16, literal(-9)))
          CFI R7 load(1, XDATA, add(CFA_XSP16, literal(-6)))
          CFI V0 load(1, XDATA, add(CFA_XSP16, literal(-7)))
          CFI ?BRET_EXT load(1, XDATA, add(CFA_XSP16, literal(-3)))
          CFI ?RET_HIGH load(1, XDATA, add(CFA_XSP16, literal(-4)))
          CFI ?RET_LOW load(1, XDATA, add(CFA_XSP16, literal(-5)))
        MOV     R7,#0x1
        LJMP    ?BANKED_LEAVE_XDATA
          CFI EndBlock cfiBlock8

        RSEG BANKED_CODE:HUGECODE:NOROOT(0)
?Subroutine1:
          CFI Block cfiCond9 Using cfiCommon0
          CFI Function zb_HandleOsalEvent
          CFI Conditional ??CrossCallReturnLabel_8
          CFI R6 load(1, XDATA, add(CFA_XSP16, literal(-16)))
          CFI VB load(1, XDATA, add(CFA_XSP16, literal(-15)))
          CFI V0 load(1, XDATA, add(CFA_XSP16, literal(-14)))
          CFI V1 load(1, XDATA, add(CFA_XSP16, literal(-13)))
          CFI V2 load(1, XDATA, add(CFA_XSP16, literal(-12)))
          CFI V3 load(1, XDATA, add(CFA_XSP16, literal(-11)))
          CFI V4 load(1, XDATA, add(CFA_XSP16, literal(-10)))
          CFI V5 load(1, XDATA, add(CFA_XSP16, literal(-9)))
          CFI V6 load(1, XDATA, add(CFA_XSP16, literal(-8)))
          CFI V7 load(1, XDATA, add(CFA_XSP16, literal(-7)))
          CFI R7 load(1, XDATA, add(CFA_XSP16, literal(-6)))
          CFI ?RET_LOW load(1, XDATA, add(CFA_XSP16, literal(-5)))
          CFI ?RET_HIGH load(1, XDATA, add(CFA_XSP16, literal(-4)))
          CFI ?BRET_EXT load(1, XDATA, add(CFA_XSP16, literal(-3)))
          CFI DPL0 load(1, XDATA, add(CFA_XSP16, literal(-2)))
          CFI DPH0 load(1, XDATA, add(CFA_XSP16, literal(-1)))
          CFI CFA_SP SP+-2
          CFI CFA_XSP16 add(XSP16, 47)
          CFI Block cfiCond10 Using cfiCommon0
          CFI (cfiCond10) Function zb_BindConfirm
          CFI (cfiCond10) Conditional ??CrossCallReturnLabel_9
          CFI (cfiCond10) R6 load(1, XDATA, add(CFA_XSP16, literal(-9)))
          CFI (cfiCond10) VB load(1, XDATA, add(CFA_XSP16, literal(-8)))
          CFI (cfiCond10) V0 load(1, XDATA, add(CFA_XSP16, literal(-7)))
          CFI (cfiCond10) R7 load(1, XDATA, add(CFA_XSP16, literal(-6)))
          CFI (cfiCond10) ?RET_LOW load(1, XDATA, add(CFA_XSP16, literal(-5)))
          CFI (cfiCond10) ?RET_HIGH load(1, XDATA, add(CFA_XSP16, literal(-4)))
          CFI (cfiCond10) ?BRET_EXT load(1, XDATA, add(CFA_XSP16, literal(-3)))
          CFI (cfiCond10) DPL0 load(1, XDATA, add(CFA_XSP16, literal(-2)))
          CFI (cfiCond10) DPH0 load(1, XDATA, add(CFA_XSP16, literal(-1)))
          CFI (cfiCond10) CFA_SP SP+-2
          CFI (cfiCond10) CFA_XSP16 add(XSP16, 9)
          CFI Block cfiPicker11 Using cfiCommon1
          CFI (cfiPicker11) NoFunction
          CFI (cfiPicker11) Picker
        MOV     DPTR,#myIdReportPeriod
          CFI EndBlock cfiCond9
          CFI EndBlock cfiCond10
          CFI EndBlock cfiPicker11
        REQUIRE ??Subroutine4_0
        ; // Fall through to label ??Subroutine4_0

        RSEG BANKED_CODE:HUGECODE:NOROOT(0)
??Subroutine4_0:
          CFI Block cfiCond12 Using cfiCommon0
          CFI Function zb_HandleOsalEvent
          CFI Conditional ??CrossCallReturnLabel_3
          CFI R6 load(1, XDATA, add(CFA_XSP16, literal(-16)))
          CFI VB load(1, XDATA, add(CFA_XSP16, literal(-15)))
          CFI V0 load(1, XDATA, add(CFA_XSP16, literal(-14)))
          CFI V1 load(1, XDATA, add(CFA_XSP16, literal(-13)))
          CFI V2 load(1, XDATA, add(CFA_XSP16, literal(-12)))
          CFI V3 load(1, XDATA, add(CFA_XSP16, literal(-11)))
          CFI V4 load(1, XDATA, add(CFA_XSP16, literal(-10)))
          CFI V5 load(1, XDATA, add(CFA_XSP16, literal(-9)))
          CFI V6 load(1, XDATA, add(CFA_XSP16, literal(-8)))
          CFI V7 load(1, XDATA, add(CFA_XSP16, literal(-7)))
          CFI R7 load(1, XDATA, add(CFA_XSP16, literal(-6)))
          CFI ?RET_LOW load(1, XDATA, add(CFA_XSP16, literal(-5)))
          CFI ?RET_HIGH load(1, XDATA, add(CFA_XSP16, literal(-4)))
          CFI ?BRET_EXT load(1, XDATA, add(CFA_XSP16, literal(-3)))
          CFI DPL0 load(1, XDATA, add(CFA_XSP16, literal(-2)))
          CFI DPH0 load(1, XDATA, add(CFA_XSP16, literal(-1)))
          CFI CFA_SP SP+-2
          CFI CFA_XSP16 add(XSP16, 47)
          CFI Block cfiCond13 Using cfiCommon0
          CFI (cfiCond13) Function zb_HandleOsalEvent
          CFI (cfiCond13) Conditional ??CrossCallReturnLabel_4
          CFI (cfiCond13) R6 load(1, XDATA, add(CFA_XSP16, literal(-16)))
          CFI (cfiCond13) VB load(1, XDATA, add(CFA_XSP16, literal(-15)))
          CFI (cfiCond13) V0 load(1, XDATA, add(CFA_XSP16, literal(-14)))
          CFI (cfiCond13) V1 load(1, XDATA, add(CFA_XSP16, literal(-13)))
          CFI (cfiCond13) V2 load(1, XDATA, add(CFA_XSP16, literal(-12)))
          CFI (cfiCond13) V3 load(1, XDATA, add(CFA_XSP16, literal(-11)))
          CFI (cfiCond13) V4 load(1, XDATA, add(CFA_XSP16, literal(-10)))
          CFI (cfiCond13) V5 load(1, XDATA, add(CFA_XSP16, literal(-9)))
          CFI (cfiCond13) V6 load(1, XDATA, add(CFA_XSP16, literal(-8)))
          CFI (cfiCond13) V7 load(1, XDATA, add(CFA_XSP16, literal(-7)))
          CFI (cfiCond13) R7 load(1, XDATA, add(CFA_XSP16, literal(-6)))
          CFI (cfiCond13) ?RET_LOW load(1, XDATA, add(CFA_XSP16, literal(-5)))
          CFI (cfiCond13) ?RET_HIGH load(1, XDATA, add(CFA_XSP16, literal(-4)))
          CFI (cfiCond13) ?BRET_EXT load(1, XDATA, add(CFA_XSP16, literal(-3)))
          CFI (cfiCond13) DPL0 load(1, XDATA, add(CFA_XSP16, literal(-2)))
          CFI (cfiCond13) DPH0 load(1, XDATA, add(CFA_XSP16, literal(-1)))
          CFI (cfiCond13) CFA_SP SP+-2
          CFI (cfiCond13) CFA_XSP16 add(XSP16, 47)
          CFI Block cfiCond14 Using cfiCommon0
          CFI (cfiCond14) Function zb_StartConfirm
          CFI (cfiCond14) Conditional ??CrossCallReturnLabel_5
          CFI (cfiCond14) R6 load(1, XDATA, add(CFA_XSP16, literal(-9)))
          CFI (cfiCond14) VB load(1, XDATA, add(CFA_XSP16, literal(-8)))
          CFI (cfiCond14) V0 load(1, XDATA, add(CFA_XSP16, literal(-7)))
          CFI (cfiCond14) R7 load(1, XDATA, add(CFA_XSP16, literal(-6)))
          CFI (cfiCond14) ?RET_LOW load(1, XDATA, add(CFA_XSP16, literal(-5)))
          CFI (cfiCond14) ?RET_HIGH load(1, XDATA, add(CFA_XSP16, literal(-4)))
          CFI (cfiCond14) ?BRET_EXT load(1, XDATA, add(CFA_XSP16, literal(-3)))
          CFI (cfiCond14) DPL0 load(1, XDATA, add(CFA_XSP16, literal(-2)))
          CFI (cfiCond14) DPH0 load(1, XDATA, add(CFA_XSP16, literal(-1)))
          CFI (cfiCond14) CFA_SP SP+-2
          CFI (cfiCond14) CFA_XSP16 add(XSP16, 9)
          CFI Block cfiCond15 Using cfiCommon0
          CFI (cfiCond15) Function zb_StartConfirm
          CFI (cfiCond15) Conditional ??CrossCallReturnLabel_6
          CFI (cfiCond15) R6 load(1, XDATA, add(CFA_XSP16, literal(-9)))
          CFI (cfiCond15) VB load(1, XDATA, add(CFA_XSP16, literal(-8)))
          CFI (cfiCond15) V0 load(1, XDATA, add(CFA_XSP16, literal(-7)))
          CFI (cfiCond15) R7 load(1, XDATA, add(CFA_XSP16, literal(-6)))
          CFI (cfiCond15) ?RET_LOW load(1, XDATA, add(CFA_XSP16, literal(-5)))
          CFI (cfiCond15) ?RET_HIGH load(1, XDATA, add(CFA_XSP16, literal(-4)))
          CFI (cfiCond15) ?BRET_EXT load(1, XDATA, add(CFA_XSP16, literal(-3)))
          CFI (cfiCond15) DPL0 load(1, XDATA, add(CFA_XSP16, literal(-2)))
          CFI (cfiCond15) DPH0 load(1, XDATA, add(CFA_XSP16, literal(-1)))
          CFI (cfiCond15) CFA_SP SP+-2
          CFI (cfiCond15) CFA_XSP16 add(XSP16, 9)
          CFI Block cfiCond16 Using cfiCommon0
          CFI (cfiCond16) Function zb_BindConfirm
          CFI (cfiCond16) Conditional ??CrossCallReturnLabel_7
          CFI (cfiCond16) R6 load(1, XDATA, add(CFA_XSP16, literal(-9)))
          CFI (cfiCond16) VB load(1, XDATA, add(CFA_XSP16, literal(-8)))
          CFI (cfiCond16) V0 load(1, XDATA, add(CFA_XSP16, literal(-7)))
          CFI (cfiCond16) R7 load(1, XDATA, add(CFA_XSP16, literal(-6)))
          CFI (cfiCond16) ?RET_LOW load(1, XDATA, add(CFA_XSP16, literal(-5)))
          CFI (cfiCond16) ?RET_HIGH load(1, XDATA, add(CFA_XSP16, literal(-4)))
          CFI (cfiCond16) ?BRET_EXT load(1, XDATA, add(CFA_XSP16, literal(-3)))
          CFI (cfiCond16) DPL0 load(1, XDATA, add(CFA_XSP16, literal(-2)))
          CFI (cfiCond16) DPH0 load(1, XDATA, add(CFA_XSP16, literal(-1)))
          CFI (cfiCond16) CFA_SP SP+-2
          CFI (cfiCond16) CFA_XSP16 add(XSP16, 9)
          CFI Block cfiCond17 Using cfiCommon0
          CFI (cfiCond17) Function zb_HandleOsalEvent
          CFI (cfiCond17) Conditional ??CrossCallReturnLabel_8
          CFI (cfiCond17) R6 load(1, XDATA, add(CFA_XSP16, literal(-16)))
          CFI (cfiCond17) VB load(1, XDATA, add(CFA_XSP16, literal(-15)))
          CFI (cfiCond17) V0 load(1, XDATA, add(CFA_XSP16, literal(-14)))
          CFI (cfiCond17) V1 load(1, XDATA, add(CFA_XSP16, literal(-13)))
          CFI (cfiCond17) V2 load(1, XDATA, add(CFA_XSP16, literal(-12)))
          CFI (cfiCond17) V3 load(1, XDATA, add(CFA_XSP16, literal(-11)))
          CFI (cfiCond17) V4 load(1, XDATA, add(CFA_XSP16, literal(-10)))
          CFI (cfiCond17) V5 load(1, XDATA, add(CFA_XSP16, literal(-9)))
          CFI (cfiCond17) V6 load(1, XDATA, add(CFA_XSP16, literal(-8)))
          CFI (cfiCond17) V7 load(1, XDATA, add(CFA_XSP16, literal(-7)))
          CFI (cfiCond17) R7 load(1, XDATA, add(CFA_XSP16, literal(-6)))
          CFI (cfiCond17) ?RET_LOW load(1, XDATA, add(CFA_XSP16, literal(-5)))
          CFI (cfiCond17) ?RET_HIGH load(1, XDATA, add(CFA_XSP16, literal(-4)))
          CFI (cfiCond17) ?BRET_EXT load(1, XDATA, add(CFA_XSP16, literal(-3)))
          CFI (cfiCond17) DPL0 load(1, XDATA, add(CFA_XSP16, literal(-2)))
          CFI (cfiCond17) DPH0 load(1, XDATA, add(CFA_XSP16, literal(-1)))
          CFI (cfiCond17) CFA_SP SP+-2
          CFI (cfiCond17) CFA_XSP16 add(XSP16, 47)
          CFI Block cfiCond18 Using cfiCommon0
          CFI (cfiCond18) Function zb_BindConfirm
          CFI (cfiCond18) Conditional ??CrossCallReturnLabel_9
          CFI (cfiCond18) R6 load(1, XDATA, add(CFA_XSP16, literal(-9)))
          CFI (cfiCond18) VB load(1, XDATA, add(CFA_XSP16, literal(-8)))
          CFI (cfiCond18) V0 load(1, XDATA, add(CFA_XSP16, literal(-7)))
          CFI (cfiCond18) R7 load(1, XDATA, add(CFA_XSP16, literal(-6)))
          CFI (cfiCond18) ?RET_LOW load(1, XDATA, add(CFA_XSP16, literal(-5)))
          CFI (cfiCond18) ?RET_HIGH load(1, XDATA, add(CFA_XSP16, literal(-4)))
          CFI (cfiCond18) ?BRET_EXT load(1, XDATA, add(CFA_XSP16, literal(-3)))
          CFI (cfiCond18) DPL0 load(1, XDATA, add(CFA_XSP16, literal(-2)))
          CFI (cfiCond18) DPH0 load(1, XDATA, add(CFA_XSP16, literal(-1)))
          CFI (cfiCond18) CFA_SP SP+-2
          CFI (cfiCond18) CFA_XSP16 add(XSP16, 9)
          CFI Block cfiPicker19 Using cfiCommon1
          CFI (cfiPicker19) NoFunction
          CFI (cfiPicker19) Picker
        MOVX    A,@DPTR
        MOV     R4,A
        INC     DPTR
        MOVX    A,@DPTR
        MOV     R5,A
        RET
          CFI EndBlock cfiCond12
          CFI EndBlock cfiCond13
          CFI EndBlock cfiCond14
          CFI EndBlock cfiCond15
          CFI EndBlock cfiCond16
          CFI EndBlock cfiCond17
          CFI EndBlock cfiCond18
          CFI EndBlock cfiPicker19
//  233 /******************************************************************************
//  234  * @fn          zb_SendDataConfirm
//  235  *
//  236  * @brief       The zb_SendDataConfirm callback function is called by the
//  237  *              ZigBee after a send data operation completes
//  238  *
//  239  * @param       handle - The handle identifying the data transmission.
//  240  *              status - The status of the operation.
//  241  *
//  242  * @return      none
//  243  */

        RSEG BANKED_CODE:HUGECODE:NOROOT(0)
//  244 void zb_SendDataConfirm( uint8 handle, uint8 status )
zb_SendDataConfirm:
          CFI Block cfiBlock20 Using cfiCommon0
          CFI Function zb_SendDataConfirm
        CODE
//  245 {
        FUNCALL zb_SendDataConfirm, zb_BindDevice
        LOCFRAME ISTACK, 0, STACK
        LOCFRAME PSTACK, 0, STACK
        LOCFRAME XSTACK, 9, STACK
        LOCFRAME IOVERLAY, 0, STATIC
        LOCFRAME DOVERLAY, 0, STATIC
        ARGFRAME ISTACK, 0, STACK
        ARGFRAME PSTACK, 0, STACK
        ARGFRAME XSTACK, 9, STACK
        ARGFRAME IOVERLAY, 0, STATIC
        ARGFRAME DOVERLAY, 0, STATIC
        FUNCALL zb_SendDataConfirm, osal_stop_timerEx
        LOCFRAME ISTACK, 0, STACK
        LOCFRAME PSTACK, 0, STACK
        LOCFRAME XSTACK, 9, STACK
        LOCFRAME IOVERLAY, 0, STATIC
        LOCFRAME DOVERLAY, 0, STATIC
        ARGFRAME ISTACK, 0, STACK
        ARGFRAME PSTACK, 0, STACK
        ARGFRAME XSTACK, 9, STACK
        ARGFRAME IOVERLAY, 0, STATIC
        ARGFRAME DOVERLAY, 0, STATIC
        FUNCALL zb_SendDataConfirm, osal_start_timerEx
        LOCFRAME ISTACK, 0, STACK
        LOCFRAME PSTACK, 0, STACK
        LOCFRAME XSTACK, 9, STACK
        LOCFRAME IOVERLAY, 0, STATIC
        LOCFRAME DOVERLAY, 0, STATIC
        ARGFRAME ISTACK, 0, STACK
        ARGFRAME PSTACK, 0, STACK
        ARGFRAME XSTACK, 9, STACK
        ARGFRAME IOVERLAY, 0, STATIC
        ARGFRAME DOVERLAY, 0, STATIC
        MOV     A,#-0x9
        LCALL   ?BANKED_ENTER_XDATA
          CFI DPH0 load(1, XDATA, add(CFA_XSP16, literal(-1)))
          CFI DPL0 load(1, XDATA, add(CFA_XSP16, literal(-2)))
          CFI ?BRET_EXT load(1, XDATA, add(CFA_XSP16, literal(-3)))
          CFI ?RET_HIGH load(1, XDATA, add(CFA_XSP16, literal(-4)))
          CFI ?RET_LOW load(1, XDATA, add(CFA_XSP16, literal(-5)))
          CFI R7 load(1, XDATA, add(CFA_XSP16, literal(-6)))
          CFI V0 load(1, XDATA, add(CFA_XSP16, literal(-7)))
          CFI VB load(1, XDATA, add(CFA_XSP16, literal(-8)))
          CFI R6 load(1, XDATA, add(CFA_XSP16, literal(-9)))
          CFI CFA_SP SP+0
          CFI CFA_XSP16 add(XSP16, 9)
        ; Saved register size: 9
        ; Auto size: 0
        MOV     A,R2
//  246   (void)handle; 
//  247   
//  248   //HalUARTWrite(HAL_UART_PORT_0,"SendDataConfirm ", (byte)osal_strlen("SendDataConfirm ")); 
//  249 
//  250   if ( status != ZSuccess )
        JZ      ??zb_SendDataConfirm_0
//  251   {    
//  252     //HalUARTWrite(HAL_UART_PORT_0,"Fail\n", (byte)osal_strlen("Fail\n"));
//  253     // Remove bindings to the existing collector
//  254     zb_BindDevice( FALSE, SENSOR_REPORT_CMD_ID, (uint8 *)NULL );
        ; Setup parameters for call to function zb_BindDevice
        MOV     R4,#0x0
        MOV     R5,#0x0
        MOV     R2,#0x2
        MOV     R3,#0x0
        MOV     R1,#0x0
        LCALL   `??zb_BindDevice::?relay`; Banked call to: zb_BindDevice
//  255 
//  256     myAppState = APP_START;
        MOV     DPTR,#myAppState
        MOV     A,#0x1
        MOVX    @DPTR,A
//  257     myApp_StopReporting();
        ; Setup parameters for call to function osal_stop_timerEx
        MOV     R2,#0x10
        MOV     R3,#0x0
        MOV     DPTR,#sapi_TaskID
        MOVX    A,@DPTR
        MOV     R1,A
        LCALL   `??osal_stop_timerEx::?relay`; Banked call to: osal_stop_timerEx
//  258 
//  259     // Start process of finding new collector with minimal delay
//  260     osal_start_timerEx( sapi_TaskID, MY_FIND_COLLECTOR_EVT, 1 );
        ; Setup parameters for call to function osal_start_timerEx
        MOV     R4,#0x1
        MOV     R5,#0x0
        MOV     R2,#0x8
        MOV     R3,#0x0
        MOV     DPTR,#sapi_TaskID
        MOVX    A,@DPTR
        MOV     R1,A
        LCALL   `??osal_start_timerEx::?relay`; Banked call to: osal_start_timerEx
//  261   }
//  262   else
//  263   {
//  264     //HalUARTWrite(HAL_UART_PORT_0,"Success\n", (byte)osal_strlen("Success\n"));
//  265   }
//  266 }
??zb_SendDataConfirm_0:
        SJMP    ??Subroutine3_0
          CFI EndBlock cfiBlock20
//  267 /******************************************************************************
//  268  * @fn          zb_BindConfirm
//  269  *
//  270  * @brief       The zb_BindConfirm callback is called by the ZigBee stack
//  271  *              after a bind operation completes.
//  272  *
//  273  * @param       commandId - The command ID of the binding being confirmed.
//  274  *              status - The status of the bind operation.
//  275  *
//  276  * @return      none
//  277  */

        RSEG BANKED_CODE:HUGECODE:NOROOT(0)
//  278 void zb_BindConfirm( uint16 commandId, uint8 status )
zb_BindConfirm:
          CFI Block cfiBlock21 Using cfiCommon0
          CFI Function zb_BindConfirm
        CODE
//  279 {
        FUNCALL zb_BindConfirm, osal_start_timerEx
        LOCFRAME ISTACK, 0, STACK
        LOCFRAME PSTACK, 0, STACK
        LOCFRAME XSTACK, 9, STACK
        LOCFRAME IOVERLAY, 0, STATIC
        LOCFRAME DOVERLAY, 0, STATIC
        ARGFRAME ISTACK, 0, STACK
        ARGFRAME PSTACK, 0, STACK
        ARGFRAME XSTACK, 9, STACK
        ARGFRAME IOVERLAY, 0, STATIC
        ARGFRAME DOVERLAY, 0, STATIC
        FUNCALL zb_BindConfirm, osal_start_timerEx
        LOCFRAME ISTACK, 0, STACK
        LOCFRAME PSTACK, 0, STACK
        LOCFRAME XSTACK, 9, STACK
        LOCFRAME IOVERLAY, 0, STATIC
        LOCFRAME DOVERLAY, 0, STATIC
        ARGFRAME ISTACK, 0, STACK
        ARGFRAME PSTACK, 0, STACK
        ARGFRAME XSTACK, 9, STACK
        ARGFRAME IOVERLAY, 0, STATIC
        ARGFRAME DOVERLAY, 0, STATIC
        MOV     A,#-0x9
        LCALL   ?BANKED_ENTER_XDATA
          CFI DPH0 load(1, XDATA, add(CFA_XSP16, literal(-1)))
          CFI DPL0 load(1, XDATA, add(CFA_XSP16, literal(-2)))
          CFI ?BRET_EXT load(1, XDATA, add(CFA_XSP16, literal(-3)))
          CFI ?RET_HIGH load(1, XDATA, add(CFA_XSP16, literal(-4)))
          CFI ?RET_LOW load(1, XDATA, add(CFA_XSP16, literal(-5)))
          CFI R7 load(1, XDATA, add(CFA_XSP16, literal(-6)))
          CFI V0 load(1, XDATA, add(CFA_XSP16, literal(-7)))
          CFI VB load(1, XDATA, add(CFA_XSP16, literal(-8)))
          CFI R6 load(1, XDATA, add(CFA_XSP16, literal(-9)))
          CFI CFA_SP SP+0
          CFI CFA_XSP16 add(XSP16, 9)
        ; Saved register size: 9
        ; Auto size: 0
        MOV     A,R1
//  280   (void)commandId;
//  281   
//  282   //HalUARTWrite(HAL_UART_PORT_0,"BindConfirm\n", (byte)osal_strlen("BindConfirm\n")); 
//  283 
//  284   if ( ( status == ZB_SUCCESS ) && ( myAppState == APP_START ) )
        JNZ     ??zb_BindConfirm_0
        MOV     DPTR,#myAppState
        MOVX    A,@DPTR
        XRL     A,#0x1
        JNZ     ??zb_BindConfirm_0
//  285   {
//  286     myAppState = APP_BOUND;
        MOV     A,#0x2
        MOVX    @DPTR,A
//  287 
//  288     //Start reporting sensor values
//  289     myApp_StartReporting();
        ; Setup parameters for call to function osal_start_timerEx
        LCALL   ?Subroutine1 & 0xFFFF
//  290   }
??CrossCallReturnLabel_9:
        MOV     R2,#0x10
        SJMP    ??zb_BindConfirm_1
//  291   else
//  292   {
//  293     // Continue to discover a collector
//  294     osal_start_timerEx( sapi_TaskID, MY_FIND_COLLECTOR_EVT, myBindRetryDelay );
??zb_BindConfirm_0:
        ; Setup parameters for call to function osal_start_timerEx
        MOV     DPTR,#myBindRetryDelay
        LCALL   ??Subroutine4_0 & 0xFFFF
//  295   }
??CrossCallReturnLabel_7:
        MOV     R2,#0x8
??zb_BindConfirm_1:
        SJMP    ?Subroutine0
//  296 }
          CFI EndBlock cfiBlock21
//  297 /******************************************************************************
//  298  * @fn          zb_AllowBindConfirm
//  299  *
//  300  * @brief       Indicates when another device attempted to bind to this device
//  301  *
//  302  * @param
//  303  *
//  304  * @return      none
//  305  */

        RSEG BANKED_CODE:HUGECODE:NOROOT(0)
//  306 void zb_AllowBindConfirm( uint16 source )
zb_AllowBindConfirm:
          CFI Block cfiBlock22 Using cfiCommon0
          CFI Function zb_AllowBindConfirm
        CODE
//  307 {
        ; Saved register size: 0
        ; Auto size: 0
//  308   (void)source;
//  309   //HalUARTWrite(HAL_UART_PORT_0,"AllowBindConfirm\n", (byte)osal_strlen("AllowBindConfirm\n"));
//  310 }
        LJMP    ?BRET
          CFI EndBlock cfiBlock22
//  311 /******************************************************************************
//  312  * @fn          zb_FindDeviceConfirm
//  313  *
//  314  * @brief       The zb_FindDeviceConfirm callback function is called by the
//  315  *              ZigBee stack when a find device operation completes.
//  316  *
//  317  * @param       searchType - The type of search that was performed.
//  318  *              searchKey - Value that the search was executed on.
//  319  *              result - The result of the search.
//  320  *
//  321  * @return      none
//  322  */

        RSEG BANKED_CODE:HUGECODE:NOROOT(0)
//  323 void zb_FindDeviceConfirm( uint8 searchType, uint8 *searchKey, uint8 *result )
zb_FindDeviceConfirm:
          CFI Block cfiBlock23 Using cfiCommon0
          CFI Function zb_FindDeviceConfirm
        CODE
//  324 {
        ; Saved register size: 0
        ; Auto size: 0
//  325   // Add your code here and remove the "(void)" lines.
//  326   (void)searchType;
//  327   (void)searchKey;
//  328   (void)result;
//  329   //HalUARTWrite(HAL_UART_PORT_0,"FindDeviceConfirm\n", (byte)osal_strlen("FindDeviceConfirm\n"));
//  330 }
        LJMP    ?BRET
          CFI EndBlock cfiBlock23
//  331 
//  332 /******************************************************************************
//  333  * @fn          zb_ReceiveDataIndication
//  334  *
//  335  * @brief       The zb_ReceiveDataIndication callback function is called
//  336  *              asynchronously by the ZigBee stack to notify the application
//  337  *              when data is received from a peer device.
//  338  *
//  339  * @param       source - The short address of the peer device that sent the data
//  340  *              command - The commandId associated with the data
//  341  *              len - The number of bytes in the pData parameter
//  342  *              pData - The data sent by the peer device
//  343  *
//  344  * @return      none
//  345  */

        RSEG BANKED_CODE:HUGECODE:NOROOT(0)
//  346 void zb_ReceiveDataIndication( uint16 source, uint16 command, uint16 len, uint8 *pData,int8 r_power  )
zb_ReceiveDataIndication:
          CFI Block cfiBlock24 Using cfiCommon0
          CFI Function zb_ReceiveDataIndication
        CODE
//  347 {
        ; Saved register size: 0
        ; Auto size: 0
//  348   //HalUARTWrite(HAL_UART_PORT_0,"ReceiveDataIndication\n", (byte)osal_strlen("ReceiveDataIndication\n")); 
//  349   
//  350 }
        LJMP    ?BRET
          CFI EndBlock cfiBlock24
//  351 /******************************************************************************
//  352  * @fn          my_StartReporting
//  353  *
//  354  * @brief       Starts the process to periodically report sensor readings
//  355  *
//  356  * @param
//  357  *
//  358  * @return      none
//  359  */
//  360 void myApp_StartReporting( void )
//  361 {
//  362   //osal_start_timerEx( sapi_TaskID, MY_REPORT_TEMP_EVT, myTempReportPeriod );
//  363   //osal_start_timerEx( sapi_TaskID, MY_REPORT_BATT_EVT, myBatteryCheckPeriod );
//  364   osal_start_timerEx( sapi_TaskID, ID_REPORT_EVT, myIdReportPeriod );
//  365   //HalLedSet( HAL_LED_1, HAL_LED_MODE_ON );
//  366   
//  367   //HalUARTWrite(HAL_UART_PORT_0,"StartReporting\n", (byte)osal_strlen("StartReporting\n")); 
//  368 
//  369 }
//  370 /******************************************************************************
//  371  * @fn          my_StopReporting
//  372  *
//  373  * @brief       Stops the process to periodically report sensor readings
//  374  *
//  375  * @param
//  376  *
//  377  * @return      none
//  378  */
//  379 void myApp_StopReporting( void )
//  380 {
//  381   //osal_stop_timerEx( sapi_TaskID, MY_REPORT_TEMP_EVT );
//  382   //osal_stop_timerEx( sapi_TaskID, MY_REPORT_BATT_EVT );
//  383   osal_stop_timerEx( sapi_TaskID, ID_REPORT_EVT );
//  384   //HalLedSet( HAL_LED_1, HAL_LED_MODE_OFF );
//  385   
//  386   //HalUARTWrite(HAL_UART_PORT_0,"StopReporting\n", (byte)osal_strlen("StopReporting\n")); 
//  387 }
//  388 /******************************************************************************
//  389  * @fn          myApp_ReadBattery
//  390  *
//  391  * @brief       Reports battery sensor reading
//  392  *
//  393  * @param
//  394  *
//  395  * @return
//  396  ******************************************************************************/
//  397 uint8 myApp_ReadBattery( void )
//  398 {
//  399 
//  400 #if defined (HAL_MCU_CC2430) || defined (HAL_MCU_CC2530)
//  401 
//  402   uint16 value;
//  403 
//  404   /* Clear ADC interrupt flag */
//  405   ADCIF = 0;
//  406 
//  407   ADCCON3 = (HAL_ADC_REF_125V | HAL_ADC_DEC_128 | HAL_ADC_CHN_VDD3);
//  408 
//  409   /* Wait for the conversion to finish */
//  410   while ( !ADCIF );
//  411 
//  412   /* Get the result */
//  413   value = ADCL;
//  414   value |= ((uint16) ADCH) << 8;
//  415 
//  416   /*
//  417    * value now contains measurement of Vdd/3
//  418    * 0 indicates 0V and 32767 indicates 1.25V
//  419    * voltage = (value*3*1.25)/32767 volts
//  420    * we will multiply by this by 10 to allow units of 0.1 volts
//  421    */
//  422 
//  423   value = value >> 6;   // divide first by 2^6
//  424   value = (uint16)(value * 37.5);
//  425   value = value >> 9;   // ...and later by 2^9...to prevent overflow during multiplication
//  426 
//  427   return value;
//  428 
//  429 #endif    // CC2430 or CC2530
//  430 
//  431 #if defined HAL_MCU_MSP430
//  432 
//  433   uint16 value;
//  434 
//  435 /*
//  436   There are more than MSP430 board now. Idealy, ADC read should be called
//  437 */
//  438 #if defined (HAL_BOARD_F5438)
//  439 
//  440   value = HalAdcRead (HAL_ADC_CHANNEL_VDD, HAL_ADC_RESOLUTION_14);
//  441   value = value * 50;
//  442   value = value / 4096;
//  443 
//  444 #else
//  445 
//  446   ADC12CTL0 = ADC12ON+SHT0_2+REFON;             // Turn on and set up ADC12
//  447   ADC12CTL1 = SHP;                              // Use sampling timer
//  448   ADC12MCTL0 = SREF_1+INCH_11;                  // Vr+=Vref+
//  449 
//  450   ADC12CTL0 |= ENC | ADC12SC;                   // Start conversion
//  451   while ((ADC12IFG & BIT0)==0);
//  452 
//  453   value = ADC12MEM0;
//  454 
//  455   /*
//  456    * value now contains measurement of AVcc/2
//  457    * value is in range 0 to 4095 indicating voltage from 0 to 1.5V
//  458    * voltage = (value*2*1.5)/4095 volts
//  459    * we will multiply by this by 10 to allow units of 0.1 volts
//  460    */
//  461 
//  462   value = value >> 1;     // value is now in range of 0 to 2048
//  463   value = value * 30;
//  464   value = value >> 11;
//  465 
//  466 #endif
//  467 
//  468   return ( value );
//  469 
//  470 #endif // MSP430
//  471 
//  472 #if defined HAL_MCU_AVR
//  473 
//  474   // If platform doesnt support a battery sensor, just return random value
//  475 
//  476   uint8 value;
//  477   value = 20 + ( osal_rand() & 0x000F );
//  478   return ( value );
//  479 
//  480 #endif  // AVR
//  481 
//  482 }
//  483 /******************************************************************************
//  484  * @fn          myApp_ReadTemperature
//  485  *
//  486  * @brief       Reports temperature sensor reading
//  487  *
//  488  * @param
//  489  *
//  490  * @return
//  491  ******************************************************************************/
//  492 uint8 myApp_ReadTemperature( void )
//  493 {
//  494 
//  495 #if defined (HAL_MCU_CC2430) || defined (HAL_MCU_CC2530)
//  496 
//  497   uint16 value;
//  498 
//  499   /* Clear ADC interrupt flag */
//  500   ADCIF = 0;
//  501 
//  502   ADCCON3 = (HAL_ADC_REF_125V | HAL_ADC_DEC_512 | HAL_ADC_CHN_TEMP);
//  503 
//  504   /* Wait for the conversion to finish */
//  505   while ( !ADCIF );
//  506 
//  507   /* Get the result */
//  508   value = ADCL;
//  509   value |= ((uint16) ADCH) << 8;
//  510 
//  511   /*
//  512    * value ranges from 0 to 0x8000 indicating 0V and 1.25V
//  513    * VOLTAGE_AT_TEMP_ZERO = 0.743 V = 19477
//  514    * TEMP_COEFFICIENT = 0.0024 V/C = 62.9 /C
//  515    * These parameters are typical values and need to be calibrated
//  516    * See the datasheet for the appropriate chip for more details
//  517    * also, the math below may not be very accurate
//  518    */
//  519 #if defined (HAL_MCU_CC2430)
//  520   #define VOLTAGE_AT_TEMP_ZERO      19477   // 0.743 V
//  521   #define TEMP_COEFFICIENT          62.9    // 0.0024 V/C
//  522 #elif defined (HAL_MCU_CC2530)
//  523     /* Assume ADC = 5158 at 0C and ADC = 15/C */
//  524   #define VOLTAGE_AT_TEMP_ZERO      5158
//  525   #define TEMP_COEFFICIENT          14
//  526 #endif
//  527 
//  528   // limit min temp to 0 C
//  529   if ( value < VOLTAGE_AT_TEMP_ZERO )
//  530     value = VOLTAGE_AT_TEMP_ZERO;
//  531 
//  532   value = value - VOLTAGE_AT_TEMP_ZERO;
//  533 
//  534   // limit max temp to 99 C
//  535   if ( value > TEMP_COEFFICIENT * 99 )
//  536     value = TEMP_COEFFICIENT * 99;
//  537 
//  538   return ( (uint8)(value/TEMP_COEFFICIENT) );
//  539 
//  540 #endif  // CC2430 || CC2530
//  541 
//  542 
//  543 #if defined HAL_MCU_MSP430
//  544 
//  545   uint16 value;
//  546 
//  547 /*
//  548   There are more than MSP430 board now. Idealy, ADC read should be called
//  549 */
//  550 #if defined (HAL_BOARD_F5438)
//  551 
//  552   long multiplier, offset;
//  553 
//  554   value = HalAdcRead (HAL_ADC_CHANNEL_TEMP, HAL_ADC_RESOLUTION_14);
//  555 
//  556   multiplier = (long) 7040 * 9 /5 ;
//  557   offset = (long) 2620 * 9 / 5 - 320;
//  558 
//  559   value = (long) value * multiplier/4096 - offset;
//  560 
//  561   return (value);
//  562 
//  563 #else
//  564   ADC12CTL0 = ADC12ON+SHT0_7+REFON;         // Turn on and set up ADC12
//  565   ADC12CTL1 = SHP;                          // Use sampling timer
//  566   ADC12MCTL0 = SREF_1+INCH_10;              // Vr+=Vref+
//  567 
//  568   ADC12CTL0 |= ENC | ADC12SC;               // Start conversion
//  569   while ((ADC12IFG & BIT0)==0);
//  570 
//  571   value = ADC12MEM0;
//  572 
//  573   /*
//  574    * value ranges from 0 to 0x0FFF indicating 0V and 1.5V
//  575    * VOLTAGE_AT_TEMP_ZERO = 0.986 V = 2692
//  576    * TEMP_COEFFICIENT = 0.00355 V/C = 9.69 /C
//  577    * These parameters are typical values and need to be calibrated
//  578    * See the datasheet for the appropriate chip for more details
//  579    * also, the math below is not very accurate
//  580    */
//  581 
//  582 #define VOLTAGE_AT_TEMP_ZERO      2692      // 0.986 V
//  583 #define TEMP_COEFFICIENT          9.69      // 0.00355 V/C
//  584 
//  585   // limit min temp to 0 C
//  586   if ( value < VOLTAGE_AT_TEMP_ZERO )
//  587     value = VOLTAGE_AT_TEMP_ZERO;
//  588 
//  589   value = value - VOLTAGE_AT_TEMP_ZERO;
//  590 
//  591   // limit max temp to 99 C
//  592   if ( value > (uint16)(TEMP_COEFFICIENT * 99.0) )
//  593     value = (uint16)(TEMP_COEFFICIENT * 99.0);
//  594 
//  595   return ( (uint8)(value/TEMP_COEFFICIENT) );
//  596 #endif // HAL_BOARD_F5438
//  597 
//  598 #endif // MSP430
//  599 
//  600 #if defined HAL_MCU_AVR
//  601 
//  602   // If platform doesnt support a temperature sensor, just return random value
//  603   uint8 value;
//  604   value = 20 + ( osal_rand() & 0x000F );
//  605   return ( value );
//  606 
//  607 #endif  // AVR
//  608 
//  609 }
//  610 

        RSEG BANKED_CODE:HUGECODE:NOROOT(0)
//  611 static void Uart0_Cb(uint8 port, uint8 event){
Uart0_Cb:
          CFI Block cfiBlock25 Using cfiCommon0
          CFI Function Uart0_Cb
        CODE
        FUNCALL Uart0_Cb, osal_strlen
        LOCFRAME ISTACK, 0, STACK
        LOCFRAME PSTACK, 0, STACK
        LOCFRAME XSTACK, 14, STACK
        LOCFRAME IOVERLAY, 0, STATIC
        LOCFRAME DOVERLAY, 0, STATIC
        ARGFRAME ISTACK, 0, STACK
        ARGFRAME PSTACK, 0, STACK
        ARGFRAME XSTACK, 14, STACK
        ARGFRAME IOVERLAY, 0, STATIC
        ARGFRAME DOVERLAY, 0, STATIC
        FUNCALL Uart0_Cb, HalUARTWrite
        LOCFRAME ISTACK, 0, STACK
        LOCFRAME PSTACK, 0, STACK
        LOCFRAME XSTACK, 14, STACK
        LOCFRAME IOVERLAY, 0, STATIC
        LOCFRAME DOVERLAY, 0, STATIC
        ARGFRAME ISTACK, 0, STACK
        ARGFRAME PSTACK, 0, STACK
        ARGFRAME XSTACK, 14, STACK
        ARGFRAME IOVERLAY, 0, STATIC
        ARGFRAME DOVERLAY, 0, STATIC
        FUNCALL Uart0_Cb, osal_strlen
        LOCFRAME ISTACK, 0, STACK
        LOCFRAME PSTACK, 0, STACK
        LOCFRAME XSTACK, 14, STACK
        LOCFRAME IOVERLAY, 0, STATIC
        LOCFRAME DOVERLAY, 0, STATIC
        ARGFRAME ISTACK, 0, STACK
        ARGFRAME PSTACK, 0, STACK
        ARGFRAME XSTACK, 14, STACK
        ARGFRAME IOVERLAY, 0, STATIC
        ARGFRAME DOVERLAY, 0, STATIC
        FUNCALL Uart0_Cb, HalUARTWrite
        LOCFRAME ISTACK, 0, STACK
        LOCFRAME PSTACK, 0, STACK
        LOCFRAME XSTACK, 14, STACK
        LOCFRAME IOVERLAY, 0, STATIC
        LOCFRAME DOVERLAY, 0, STATIC
        ARGFRAME ISTACK, 0, STACK
        ARGFRAME PSTACK, 0, STACK
        ARGFRAME XSTACK, 14, STACK
        ARGFRAME IOVERLAY, 0, STATIC
        ARGFRAME DOVERLAY, 0, STATIC
        FUNCALL Uart0_Cb, Hal_UART_RxBufLen
        LOCFRAME ISTACK, 0, STACK
        LOCFRAME PSTACK, 0, STACK
        LOCFRAME XSTACK, 14, STACK
        LOCFRAME IOVERLAY, 0, STATIC
        LOCFRAME DOVERLAY, 0, STATIC
        ARGFRAME ISTACK, 0, STACK
        ARGFRAME PSTACK, 0, STACK
        ARGFRAME XSTACK, 14, STACK
        ARGFRAME IOVERLAY, 0, STATIC
        ARGFRAME DOVERLAY, 0, STATIC
        FUNCALL Uart0_Cb, HalUARTRead
        LOCFRAME ISTACK, 0, STACK
        LOCFRAME PSTACK, 0, STACK
        LOCFRAME XSTACK, 14, STACK
        LOCFRAME IOVERLAY, 0, STATIC
        LOCFRAME DOVERLAY, 0, STATIC
        ARGFRAME ISTACK, 0, STACK
        ARGFRAME PSTACK, 0, STACK
        ARGFRAME XSTACK, 14, STACK
        ARGFRAME IOVERLAY, 0, STATIC
        ARGFRAME DOVERLAY, 0, STATIC
        FUNCALL Uart0_Cb, zb_WriteConfiguration
        LOCFRAME ISTACK, 0, STACK
        LOCFRAME PSTACK, 0, STACK
        LOCFRAME XSTACK, 14, STACK
        LOCFRAME IOVERLAY, 0, STATIC
        LOCFRAME DOVERLAY, 0, STATIC
        ARGFRAME ISTACK, 0, STACK
        ARGFRAME PSTACK, 0, STACK
        ARGFRAME XSTACK, 14, STACK
        ARGFRAME IOVERLAY, 0, STATIC
        ARGFRAME DOVERLAY, 0, STATIC
        FUNCALL Uart0_Cb, zb_SystemReset
        LOCFRAME ISTACK, 0, STACK
        LOCFRAME PSTACK, 0, STACK
        LOCFRAME XSTACK, 14, STACK
        LOCFRAME IOVERLAY, 0, STATIC
        LOCFRAME DOVERLAY, 0, STATIC
        ARGFRAME ISTACK, 0, STACK
        ARGFRAME PSTACK, 0, STACK
        ARGFRAME XSTACK, 14, STACK
        ARGFRAME IOVERLAY, 0, STATIC
        ARGFRAME DOVERLAY, 0, STATIC
        REQUIRE ?V0
        REQUIRE ?V1
        REQUIRE ?V2
        REQUIRE ?V3
        MOV     A,#-0xc
        LCALL   ?BANKED_ENTER_XDATA
          CFI DPH0 load(1, XDATA, add(CFA_XSP16, literal(-1)))
          CFI DPL0 load(1, XDATA, add(CFA_XSP16, literal(-2)))
          CFI ?BRET_EXT load(1, XDATA, add(CFA_XSP16, literal(-3)))
          CFI ?RET_HIGH load(1, XDATA, add(CFA_XSP16, literal(-4)))
          CFI ?RET_LOW load(1, XDATA, add(CFA_XSP16, literal(-5)))
          CFI R7 load(1, XDATA, add(CFA_XSP16, literal(-6)))
          CFI V3 load(1, XDATA, add(CFA_XSP16, literal(-7)))
          CFI V2 load(1, XDATA, add(CFA_XSP16, literal(-8)))
          CFI V1 load(1, XDATA, add(CFA_XSP16, literal(-9)))
          CFI V0 load(1, XDATA, add(CFA_XSP16, literal(-10)))
          CFI VB load(1, XDATA, add(CFA_XSP16, literal(-11)))
          CFI R6 load(1, XDATA, add(CFA_XSP16, literal(-12)))
          CFI CFA_SP SP+0
          CFI CFA_XSP16 add(XSP16, 12)
        ; Saved register size: 12
        ; Auto size: 2
        MOV     A,#-0x2
        LCALL   ?ALLOC_XSTACK8
          CFI CFA_XSP16 add(XSP16, 14)
        MOV     ?V0,R1
        MOV     ?V1,R2
//  612   uint8  ch;
//  613   uint8 startOptions;
//  614   if ((event&HAL_UART_RX_TIMEOUT) || (event&HAL_UART_RX_ABOUT_FULL)){    
        MOV     A,#0x6
        ANL     A,?V1
        JNZ     ??Uart0_Cb_0
//  615     while (Hal_UART_RxBufLen(port))
//  616     {
//  617       HalUARTRead ( port, &ch, 1);
//  618       if( ch == '?' ){
//  619         HalUARTWrite(HAL_UART_PORT_0,"\nEndDevice:", (byte)osal_strlen("\nEndDevice:"));  
//  620         if(MY_ID==1)
//  621           HalUARTWrite(HAL_UART_PORT_0,"1\n", (byte)osal_strlen("1\n"));  
//  622         else if(MY_ID==2)
//  623           HalUARTWrite(HAL_UART_PORT_0,"2\n", (byte)osal_strlen("2\n"));  
//  624         else if(MY_ID==3)
//  625           HalUARTWrite(HAL_UART_PORT_0,"3\n", (byte)osal_strlen("3\n"));  
//  626         
//  627       }else if( ch == 'r' ){
//  628           startOptions = ZCD_STARTOPT_CLEAR_STATE | ZCD_STARTOPT_CLEAR_CONFIG;
//  629           zb_WriteConfiguration( ZCD_NV_STARTUP_OPTION, sizeof(uint8), &startOptions );
//  630           zb_SystemReset();
//  631       }else if( ch == '3' ){        
//  632         
//  633       }
//  634     }
//  635   }
//  636 }
??Uart0_Cb_1:
        MOV     A,#0x2
        LCALL   ?DEALLOC_XSTACK8
          CFI CFA_XSP16 add(XSP16, 12)
        MOV     R7,#0x4
        LJMP    ?BANKED_LEAVE_XDATA
          CFI CFA_XSP16 add(XSP16, 14)
??Uart0_Cb_2:
        ; Setup parameters for call to function osal_strlen
        MOV     R2,#`?<Constant "\\nEndDevice:">` & 0xff
        MOV     R3,#(`?<Constant "\\nEndDevice:">` >> 8) & 0xff
        LCALL   `??osal_strlen::?relay`; Banked call to: osal_strlen
        MOV     ?V2,R2
        ; Setup parameters for call to function HalUARTWrite
        MOV     R4,?V2
        MOV     R5,#0x0
        MOV     R2,#`?<Constant "\\nEndDevice:">` & 0xff
        MOV     R3,#(`?<Constant "\\nEndDevice:">` >> 8) & 0xff
        MOV     R1,#0x0
        LCALL   `??HalUARTWrite::?relay`; Banked call to: HalUARTWrite
        ; Setup parameters for call to function osal_strlen
        MOV     R2,#`?<Constant "1\\n">` & 0xff
        MOV     R3,#(`?<Constant "1\\n">` >> 8) & 0xff
        LCALL   `??osal_strlen::?relay`; Banked call to: osal_strlen
        MOV     ?V2,R2
        ; Setup parameters for call to function HalUARTWrite
        MOV     R4,?V2
        MOV     R5,#0x0
        MOV     R2,#`?<Constant "1\\n">` & 0xff
        MOV     R3,#(`?<Constant "1\\n">` >> 8) & 0xff
        MOV     R1,#0x0
        LCALL   `??HalUARTWrite::?relay`; Banked call to: HalUARTWrite
??Uart0_Cb_0:
        ; Setup parameters for call to function Hal_UART_RxBufLen
        MOV     R1,?V0
        LCALL   `??Hal_UART_RxBufLen::?relay`; Banked call to: Hal_UART_RxBufLen
        MOV     ?V3,R3
        MOV     A,R2
        ORL     A,?V3
        JZ      ??Uart0_Cb_1
        ; Setup parameters for call to function HalUARTRead
        MOV     R4,#0x1
        MOV     R5,#0x0
        MOV     R2,?XSP + 0
        MOV     R3,?XSP + 1
        MOV     R1,?V0
        LCALL   `??HalUARTRead::?relay`; Banked call to: HalUARTRead
        MOV     DPL,?XSP + 0
        MOV     DPH,?XSP + 1
        MOVX    A,@DPTR
        XRL     A,#0x3f
        JZ      ??Uart0_Cb_2
        MOVX    A,@DPTR
        XRL     A,#0x72
        JNZ     ??Uart0_Cb_0
        MOV     A,#0x1
        LCALL   ?XSTACK_DISP0_8
        MOV     A,#0x3
        MOVX    @DPTR,A
        ; Setup parameters for call to function zb_WriteConfiguration
        MOV     A,#0x1
        LCALL   ?XSTACK_DISP102_8
        MOV     R2,#0x1
        MOV     R1,#0x3
        LCALL   `??zb_WriteConfiguration::?relay`; Banked call to: zb_WriteConfiguration
        ; Setup parameters for call to function zb_SystemReset
        LCALL   `??zb_SystemReset::?relay`; Banked call to: zb_SystemReset
        SJMP    ??Uart0_Cb_0
          CFI EndBlock cfiBlock25

        RSEG XDATA_ID:CODE:NOROOT(0)
`?<Initializer for myStartRetryDelay>`:
        DATA16
        DW 1000

        RSEG XDATA_ID:CODE:NOROOT(0)
`?<Initializer for myTempReportPeriod>`:
        DATA16
        DW 5000

        RSEG XDATA_ID:CODE:NOROOT(0)
`?<Initializer for myBatteryCheckPeriod>`:
        DATA16
        DW 15000

        RSEG XDATA_ID:CODE:NOROOT(0)
`?<Initializer for myBindRetryDelay>`:
        DATA16
        DW 1000

        RSEG XDATA_ID:CODE:NOROOT(0)
`?<Initializer for myIdReportPeriod>`:
        DATA16
        DW 2000

        RSEG BANK_RELAYS:CODE:REORDER:NOROOT(0)
`??zb_HandleOsalEvent::?relay`:
        CODE
        LCALL   ?BDISPATCH
        DATA24
        DC24    zb_HandleOsalEvent

        RSEG BANK_RELAYS:CODE:REORDER:NOROOT(0)
`??zb_HandleKeys::?relay`:
        CODE
        LCALL   ?BDISPATCH
        DATA24
        DC24    zb_HandleKeys

        RSEG BANK_RELAYS:CODE:REORDER:NOROOT(0)
`??zb_StartConfirm::?relay`:
        CODE
        LCALL   ?BDISPATCH
        DATA24
        DC24    zb_StartConfirm

        RSEG BANK_RELAYS:CODE:REORDER:NOROOT(0)
`??zb_SendDataConfirm::?relay`:
        CODE
        LCALL   ?BDISPATCH
        DATA24
        DC24    zb_SendDataConfirm

        RSEG BANK_RELAYS:CODE:REORDER:NOROOT(0)
`??zb_BindConfirm::?relay`:
        CODE
        LCALL   ?BDISPATCH
        DATA24
        DC24    zb_BindConfirm

        RSEG BANK_RELAYS:CODE:REORDER:NOROOT(0)
`??zb_AllowBindConfirm::?relay`:
        CODE
        LCALL   ?BDISPATCH
        DATA24
        DC24    zb_AllowBindConfirm

        RSEG BANK_RELAYS:CODE:REORDER:NOROOT(0)
`??zb_FindDeviceConfirm::?relay`:
        CODE
        LCALL   ?BDISPATCH
        DATA24
        DC24    zb_FindDeviceConfirm

        RSEG BANK_RELAYS:CODE:REORDER:NOROOT(0)
`??zb_ReceiveDataIndication::?relay`:
        CODE
        LCALL   ?BDISPATCH
        DATA24
        DC24    zb_ReceiveDataIndication

        RSEG BANK_RELAYS:CODE:REORDER:NOROOT(0)
`??Uart0_Cb::?relay`:
        CODE
        LCALL   ?BDISPATCH
        DATA24
        DC24    Uart0_Cb

        RSEG XDATA_ROM_C:CONST:REORDER:NOROOT(0)
        DATA8
`?<Constant "\\nENTRY\\n">`:
        DB "\012ENTRY\012"

        RSEG XDATA_ROM_C:CONST:REORDER:NOROOT(0)
        DATA8
`?<Constant "\\nEndDevice:">`:
        DB "\012EndDevice:"

        RSEG XDATA_ROM_C:CONST:REORDER:NOROOT(0)
        DATA8
`?<Constant "1\\n">`:
        DB "1\012"

        RSEG XDATA_ROM_C:CONST:REORDER:NOROOT(0)
        DATA32
__Constant_42160000:
        DD 42160000H

        END
// 
// 920 bytes in segment BANKED_CODE
//  54 bytes in segment BANK_RELAYS
//   4 bytes in segment SFR_AN
//  10 bytes in segment XDATA_I
//  10 bytes in segment XDATA_ID
//  43 bytes in segment XDATA_ROM_C
//   3 bytes in segment XDATA_Z
// 
//  64 bytes of CODE     memory
//  39 bytes of CONST    memory (+ 4 bytes shared)
//   0 bytes of DATA     memory (+ 4 bytes shared)
// 920 bytes of HUGECODE memory
//  13 bytes of XDATA    memory
//
//Errors: none
//Warnings: none
